
TrafficLightController_MasterMCU.elf:     file format elf32-littlearm

Sections:
Idx Name          Size      VMA       LMA       File off  Algn
  0 .isr_vector   0000010c  08000000  08000000  00010000  2**0
                  CONTENTS, ALLOC, LOAD, READONLY, DATA
  1 .text         00001a58  0800010c  0800010c  0001010c  2**2
                  CONTENTS, ALLOC, LOAD, READONLY, CODE
  2 .rodata       0000002c  08001b64  08001b64  00011b64  2**0
                  CONTENTS, ALLOC, LOAD, READONLY, DATA
  3 .ARM.extab    00000000  08001b90  08001b90  0002000c  2**0
                  CONTENTS
  4 .ARM          00000000  08001b90  08001b90  0002000c  2**0
                  CONTENTS
  5 .preinit_array 00000000  08001b90  08001b90  0002000c  2**0
                  CONTENTS, ALLOC, LOAD, DATA
  6 .init_array   00000004  08001b90  08001b90  00011b90  2**2
                  CONTENTS, ALLOC, LOAD, DATA
  7 .fini_array   00000004  08001b94  08001b94  00011b94  2**2
                  CONTENTS, ALLOC, LOAD, DATA
  8 .data         0000000c  20000000  08001b98  00020000  2**2
                  CONTENTS, ALLOC, LOAD, DATA
  9 .bss          000000fc  2000000c  08001ba4  0002000c  2**2
                  ALLOC
 10 ._user_heap_stack 00000600  20000108  08001ba4  00020108  2**0
                  ALLOC
 11 .ARM.attributes 00000029  00000000  00000000  0002000c  2**0
                  CONTENTS, READONLY
 12 .comment      00000050  00000000  00000000  00020035  2**0
                  CONTENTS, READONLY
 13 .debug_frame  0000004c  00000000  00000000  00020088  2**2
                  CONTENTS, READONLY, DEBUGGING, OCTETS

Disassembly of section .text:

0800010c <__do_global_dtors_aux>:
 800010c:	b510      	push	{r4, lr}
 800010e:	4c05      	ldr	r4, [pc, #20]	; (8000124 <__do_global_dtors_aux+0x18>)
 8000110:	7823      	ldrb	r3, [r4, #0]
 8000112:	b933      	cbnz	r3, 8000122 <__do_global_dtors_aux+0x16>
 8000114:	4b04      	ldr	r3, [pc, #16]	; (8000128 <__do_global_dtors_aux+0x1c>)
 8000116:	b113      	cbz	r3, 800011e <__do_global_dtors_aux+0x12>
 8000118:	4804      	ldr	r0, [pc, #16]	; (800012c <__do_global_dtors_aux+0x20>)
 800011a:	f3af 8000 	nop.w
 800011e:	2301      	movs	r3, #1
 8000120:	7023      	strb	r3, [r4, #0]
 8000122:	bd10      	pop	{r4, pc}
 8000124:	2000000c 	.word	0x2000000c
 8000128:	00000000 	.word	0x00000000
 800012c:	08001b4c 	.word	0x08001b4c

08000130 <frame_dummy>:
 8000130:	b508      	push	{r3, lr}
 8000132:	4b03      	ldr	r3, [pc, #12]	; (8000140 <frame_dummy+0x10>)
 8000134:	b11b      	cbz	r3, 800013e <frame_dummy+0xe>
 8000136:	4903      	ldr	r1, [pc, #12]	; (8000144 <frame_dummy+0x14>)
 8000138:	4803      	ldr	r0, [pc, #12]	; (8000148 <frame_dummy+0x18>)
 800013a:	f3af 8000 	nop.w
 800013e:	bd08      	pop	{r3, pc}
 8000140:	00000000 	.word	0x00000000
 8000144:	20000010 	.word	0x20000010
 8000148:	08001b4c 	.word	0x08001b4c

0800014c <SystemClock_Config>:
 800014c:	b500      	push	{lr}
 800014e:	b091      	sub	sp, #68	; 0x44
 8000150:	2224      	movs	r2, #36	; 0x24
 8000152:	2100      	movs	r1, #0
 8000154:	a807      	add	r0, sp, #28
 8000156:	f001 fcf1 	bl	8001b3c <memset>
 800015a:	2214      	movs	r2, #20
 800015c:	2100      	movs	r1, #0
 800015e:	a801      	add	r0, sp, #4
 8000160:	f001 fcec 	bl	8001b3c <memset>
 8000164:	2302      	movs	r3, #2
 8000166:	2101      	movs	r1, #1
 8000168:	9306      	str	r3, [sp, #24]
 800016a:	2310      	movs	r3, #16
 800016c:	a806      	add	r0, sp, #24
 800016e:	e9cd 130a 	strd	r1, r3, [sp, #40]	; 0x28
 8000172:	f001 fa51 	bl	8001618 <HAL_RCC_OscConfig>
 8000176:	4601      	mov	r1, r0
 8000178:	b108      	cbz	r0, 800017e <SystemClock_Config+0x32>
 800017a:	b672      	cpsid	i
 800017c:	e7fe      	b.n	800017c <SystemClock_Config+0x30>
 800017e:	230f      	movs	r3, #15
 8000180:	e9cd 0003 	strd	r0, r0, [sp, #12]
 8000184:	e9cd 3001 	strd	r3, r0, [sp, #4]
 8000188:	9005      	str	r0, [sp, #20]
 800018a:	a801      	add	r0, sp, #4
 800018c:	f001 fc06 	bl	800199c <HAL_RCC_ClockConfig>
 8000190:	b108      	cbz	r0, 8000196 <SystemClock_Config+0x4a>
 8000192:	b672      	cpsid	i
 8000194:	e7fe      	b.n	8000194 <SystemClock_Config+0x48>
 8000196:	b011      	add	sp, #68	; 0x44
 8000198:	f85d fb04 	ldr.w	pc, [sp], #4

0800019c <main>:
 800019c:	b57f      	push	{r0, r1, r2, r3, r4, r5, r6, lr}
 800019e:	4d32      	ldr	r5, [pc, #200]	; (8000268 <main+0xcc>)
 80001a0:	f000 f95a 	bl	8000458 <HAL_Init>
 80001a4:	f7ff ffd2 	bl	800014c <SystemClock_Config>
 80001a8:	2210      	movs	r2, #16
 80001aa:	2100      	movs	r1, #0
 80001ac:	a802      	add	r0, sp, #8
 80001ae:	f001 fcc5 	bl	8001b3c <memset>
 80001b2:	69ab      	ldr	r3, [r5, #24]
 80001b4:	2200      	movs	r2, #0
 80001b6:	f043 0304 	orr.w	r3, r3, #4
 80001ba:	61ab      	str	r3, [r5, #24]
 80001bc:	69ab      	ldr	r3, [r5, #24]
 80001be:	2102      	movs	r1, #2
 80001c0:	f003 0304 	and.w	r3, r3, #4
 80001c4:	9300      	str	r3, [sp, #0]
 80001c6:	9b00      	ldr	r3, [sp, #0]
 80001c8:	69ab      	ldr	r3, [r5, #24]
 80001ca:	4828      	ldr	r0, [pc, #160]	; (800026c <main+0xd0>)
 80001cc:	f043 0308 	orr.w	r3, r3, #8
 80001d0:	61ab      	str	r3, [r5, #24]
 80001d2:	69ab      	ldr	r3, [r5, #24]
 80001d4:	2400      	movs	r4, #0
 80001d6:	f003 0308 	and.w	r3, r3, #8
 80001da:	9301      	str	r3, [sp, #4]
 80001dc:	9b01      	ldr	r3, [sp, #4]
 80001de:	f000 fbbf 	bl	8000960 <HAL_GPIO_WritePin>
 80001e2:	2302      	movs	r3, #2
 80001e4:	2201      	movs	r2, #1
 80001e6:	4821      	ldr	r0, [pc, #132]	; (800026c <main+0xd0>)
 80001e8:	a902      	add	r1, sp, #8
 80001ea:	e9cd 3202 	strd	r3, r2, [sp, #8]
 80001ee:	e9cd 4304 	strd	r4, r3, [sp, #16]
 80001f2:	f000 fadf 	bl	80007b4 <HAL_GPIO_Init>
 80001f6:	696b      	ldr	r3, [r5, #20]
 80001f8:	4622      	mov	r2, r4
 80001fa:	f043 0301 	orr.w	r3, r3, #1
 80001fe:	616b      	str	r3, [r5, #20]
 8000200:	696b      	ldr	r3, [r5, #20]
 8000202:	4621      	mov	r1, r4
 8000204:	f003 0301 	and.w	r3, r3, #1
 8000208:	2010      	movs	r0, #16
 800020a:	9302      	str	r3, [sp, #8]
 800020c:	9b02      	ldr	r3, [sp, #8]
 800020e:	f000 f96b 	bl	80004e8 <HAL_NVIC_SetPriority>
 8000212:	2010      	movs	r0, #16
 8000214:	f000 f99a 	bl	800054c <HAL_NVIC_EnableIRQ>
 8000218:	4622      	mov	r2, r4
 800021a:	4621      	mov	r1, r4
 800021c:	2011      	movs	r0, #17
 800021e:	f000 f963 	bl	80004e8 <HAL_NVIC_SetPriority>
 8000222:	2011      	movs	r0, #17
 8000224:	f000 f992 	bl	800054c <HAL_NVIC_EnableIRQ>
 8000228:	4811      	ldr	r0, [pc, #68]	; (8000270 <main+0xd4>)
 800022a:	4b12      	ldr	r3, [pc, #72]	; (8000274 <main+0xd8>)
 800022c:	4a12      	ldr	r2, [pc, #72]	; (8000278 <main+0xdc>)
 800022e:	e9c0 4402 	strd	r4, r4, [r0, #8]
 8000232:	e9c0 2300 	strd	r2, r3, [r0]
 8000236:	f44f 4380 	mov.w	r3, #16384	; 0x4000
 800023a:	e9c0 4406 	strd	r4, r4, [r0, #24]
 800023e:	e9c0 3404 	strd	r3, r4, [r0, #16]
 8000242:	6204      	str	r4, [r0, #32]
 8000244:	f000 fb9a 	bl	800097c <HAL_I2C_Init>
 8000248:	b960      	cbnz	r0, 8000264 <main+0xc8>
 800024a:	f104 4480 	add.w	r4, r4, #1073741824	; 0x40000000
 800024e:	f504 3484 	add.w	r4, r4, #67584	; 0x10800
 8000252:	4620      	mov	r0, r4
 8000254:	2102      	movs	r1, #2
 8000256:	f000 fb88 	bl	800096a <HAL_GPIO_TogglePin>
 800025a:	f44f 707a 	mov.w	r0, #1000	; 0x3e8
 800025e:	f000 f91f 	bl	80004a0 <HAL_Delay>
 8000262:	e7f6      	b.n	8000252 <main+0xb6>
 8000264:	b672      	cpsid	i
 8000266:	e7fe      	b.n	8000266 <main+0xca>
 8000268:	40021000 	.word	0x40021000
 800026c:	40010800 	.word	0x40010800
 8000270:	200000b0 	.word	0x200000b0
 8000274:	000186a0 	.word	0x000186a0
 8000278:	40005400 	.word	0x40005400

0800027c <Error_Handler>:
 800027c:	b672      	cpsid	i
 800027e:	e7fe      	b.n	800027e <Error_Handler+0x2>

08000280 <HAL_MspInit>:
 8000280:	4b0a      	ldr	r3, [pc, #40]	; (80002ac <HAL_MspInit+0x2c>)
 8000282:	b082      	sub	sp, #8
 8000284:	699a      	ldr	r2, [r3, #24]
 8000286:	f042 0201 	orr.w	r2, r2, #1
 800028a:	619a      	str	r2, [r3, #24]
 800028c:	699a      	ldr	r2, [r3, #24]
 800028e:	f002 0201 	and.w	r2, r2, #1
 8000292:	9200      	str	r2, [sp, #0]
 8000294:	9a00      	ldr	r2, [sp, #0]
 8000296:	69da      	ldr	r2, [r3, #28]
 8000298:	f042 5280 	orr.w	r2, r2, #268435456	; 0x10000000
 800029c:	61da      	str	r2, [r3, #28]
 800029e:	69db      	ldr	r3, [r3, #28]
 80002a0:	f003 5380 	and.w	r3, r3, #268435456	; 0x10000000
 80002a4:	9301      	str	r3, [sp, #4]
 80002a6:	9b01      	ldr	r3, [sp, #4]
 80002a8:	b002      	add	sp, #8
 80002aa:	4770      	bx	lr
 80002ac:	40021000 	.word	0x40021000

080002b0 <HAL_I2C_MspInit>:
 80002b0:	b570      	push	{r4, r5, r6, lr}
 80002b2:	2610      	movs	r6, #16
 80002b4:	4605      	mov	r5, r0
 80002b6:	b086      	sub	sp, #24
 80002b8:	4632      	mov	r2, r6
 80002ba:	2100      	movs	r1, #0
 80002bc:	a802      	add	r0, sp, #8
 80002be:	f001 fc3d 	bl	8001b3c <memset>
 80002c2:	682a      	ldr	r2, [r5, #0]
 80002c4:	4b29      	ldr	r3, [pc, #164]	; (800036c <HAL_I2C_MspInit+0xbc>)
 80002c6:	429a      	cmp	r2, r3
 80002c8:	d14e      	bne.n	8000368 <HAL_I2C_MspInit+0xb8>
 80002ca:	4c29      	ldr	r4, [pc, #164]	; (8000370 <HAL_I2C_MspInit+0xc0>)
 80002cc:	21c0      	movs	r1, #192	; 0xc0
 80002ce:	69a3      	ldr	r3, [r4, #24]
 80002d0:	2001      	movs	r0, #1
 80002d2:	f043 0308 	orr.w	r3, r3, #8
 80002d6:	61a3      	str	r3, [r4, #24]
 80002d8:	69a3      	ldr	r3, [r4, #24]
 80002da:	f003 0308 	and.w	r3, r3, #8
 80002de:	9300      	str	r3, [sp, #0]
 80002e0:	9b00      	ldr	r3, [sp, #0]
 80002e2:	2312      	movs	r3, #18
 80002e4:	e9cd 1302 	strd	r1, r3, [sp, #8]
 80002e8:	2303      	movs	r3, #3
 80002ea:	a902      	add	r1, sp, #8
 80002ec:	e9cd 0304 	strd	r0, r3, [sp, #16]
 80002f0:	4820      	ldr	r0, [pc, #128]	; (8000374 <HAL_I2C_MspInit+0xc4>)
 80002f2:	f000 fa5f 	bl	80007b4 <HAL_GPIO_Init>
 80002f6:	69e3      	ldr	r3, [r4, #28]
 80002f8:	2280      	movs	r2, #128	; 0x80
 80002fa:	f443 1300 	orr.w	r3, r3, #2097152	; 0x200000
 80002fe:	61e3      	str	r3, [r4, #28]
 8000300:	69e3      	ldr	r3, [r4, #28]
 8000302:	4c1d      	ldr	r4, [pc, #116]	; (8000378 <HAL_I2C_MspInit+0xc8>)
 8000304:	f403 1300 	and.w	r3, r3, #2097152	; 0x200000
 8000308:	9301      	str	r3, [sp, #4]
 800030a:	9b01      	ldr	r3, [sp, #4]
 800030c:	4b1b      	ldr	r3, [pc, #108]	; (800037c <HAL_I2C_MspInit+0xcc>)
 800030e:	4620      	mov	r0, r4
 8000310:	e9c4 3600 	strd	r3, r6, [r4]
 8000314:	2300      	movs	r3, #0
 8000316:	e9c4 3202 	strd	r3, r2, [r4, #8]
 800031a:	e9c4 3304 	strd	r3, r3, [r4, #16]
 800031e:	e9c4 3306 	strd	r3, r3, [r4, #24]
 8000322:	f000 f935 	bl	8000590 <HAL_DMA_Init>
 8000326:	b108      	cbz	r0, 800032c <HAL_I2C_MspInit+0x7c>
 8000328:	f7ff ffa8 	bl	800027c <Error_Handler>
 800032c:	2300      	movs	r3, #0
 800032e:	4a14      	ldr	r2, [pc, #80]	; (8000380 <HAL_I2C_MspInit+0xd0>)
 8000330:	636c      	str	r4, [r5, #52]	; 0x34
 8000332:	6265      	str	r5, [r4, #36]	; 0x24
 8000334:	4c13      	ldr	r4, [pc, #76]	; (8000384 <HAL_I2C_MspInit+0xd4>)
 8000336:	e9c4 2300 	strd	r2, r3, [r4]
 800033a:	2280      	movs	r2, #128	; 0x80
 800033c:	4620      	mov	r0, r4
 800033e:	e9c4 2303 	strd	r2, r3, [r4, #12]
 8000342:	e9c4 3305 	strd	r3, r3, [r4, #20]
 8000346:	60a3      	str	r3, [r4, #8]
 8000348:	61e3      	str	r3, [r4, #28]
 800034a:	f000 f921 	bl	8000590 <HAL_DMA_Init>
 800034e:	b108      	cbz	r0, 8000354 <HAL_I2C_MspInit+0xa4>
 8000350:	f7ff ff94 	bl	800027c <Error_Handler>
 8000354:	2200      	movs	r2, #0
 8000356:	201f      	movs	r0, #31
 8000358:	4611      	mov	r1, r2
 800035a:	63ac      	str	r4, [r5, #56]	; 0x38
 800035c:	6265      	str	r5, [r4, #36]	; 0x24
 800035e:	f000 f8c3 	bl	80004e8 <HAL_NVIC_SetPriority>
 8000362:	201f      	movs	r0, #31
 8000364:	f000 f8f2 	bl	800054c <HAL_NVIC_EnableIRQ>
 8000368:	b006      	add	sp, #24
 800036a:	bd70      	pop	{r4, r5, r6, pc}
 800036c:	40005400 	.word	0x40005400
 8000370:	40021000 	.word	0x40021000
 8000374:	40010c00 	.word	0x40010c00
 8000378:	2000006c 	.word	0x2000006c
 800037c:	4002006c 	.word	0x4002006c
 8000380:	40020080 	.word	0x40020080
 8000384:	20000028 	.word	0x20000028

08000388 <NMI_Handler>:
 8000388:	e7fe      	b.n	8000388 <NMI_Handler>

0800038a <HardFault_Handler>:
 800038a:	e7fe      	b.n	800038a <HardFault_Handler>

0800038c <MemManage_Handler>:
 800038c:	e7fe      	b.n	800038c <MemManage_Handler>

0800038e <BusFault_Handler>:
 800038e:	e7fe      	b.n	800038e <BusFault_Handler>

08000390 <UsageFault_Handler>:
 8000390:	e7fe      	b.n	8000390 <UsageFault_Handler>

08000392 <SVC_Handler>:
 8000392:	4770      	bx	lr

08000394 <DebugMon_Handler>:
 8000394:	4770      	bx	lr

08000396 <PendSV_Handler>:
 8000396:	4770      	bx	lr

08000398 <SysTick_Handler>:
 8000398:	f000 b870 	b.w	800047c <HAL_IncTick>

0800039c <DMA1_Channel6_IRQHandler>:
 800039c:	4801      	ldr	r0, [pc, #4]	; (80003a4 <DMA1_Channel6_IRQHandler+0x8>)
 800039e:	f000 b971 	b.w	8000684 <HAL_DMA_IRQHandler>
 80003a2:	bf00      	nop
 80003a4:	2000006c 	.word	0x2000006c

080003a8 <DMA1_Channel7_IRQHandler>:
 80003a8:	4801      	ldr	r0, [pc, #4]	; (80003b0 <DMA1_Channel7_IRQHandler+0x8>)
 80003aa:	f000 b96b 	b.w	8000684 <HAL_DMA_IRQHandler>
 80003ae:	bf00      	nop
 80003b0:	20000028 	.word	0x20000028

080003b4 <I2C1_EV_IRQHandler>:
 80003b4:	4801      	ldr	r0, [pc, #4]	; (80003bc <I2C1_EV_IRQHandler+0x8>)
 80003b6:	f000 bcf3 	b.w	8000da0 <HAL_I2C_EV_IRQHandler>
 80003ba:	bf00      	nop
 80003bc:	200000b0 	.word	0x200000b0

080003c0 <SystemInit>:
 80003c0:	4770      	bx	lr
	...

080003c4 <Reset_Handler>:
 80003c4:	f7ff fffc 	bl	80003c0 <SystemInit>
 80003c8:	480b      	ldr	r0, [pc, #44]	; (80003f8 <LoopFillZerobss+0xe>)
 80003ca:	490c      	ldr	r1, [pc, #48]	; (80003fc <LoopFillZerobss+0x12>)
 80003cc:	4a0c      	ldr	r2, [pc, #48]	; (8000400 <LoopFillZerobss+0x16>)
 80003ce:	2300      	movs	r3, #0
 80003d0:	e002      	b.n	80003d8 <LoopCopyDataInit>

080003d2 <CopyDataInit>:
 80003d2:	58d4      	ldr	r4, [r2, r3]
 80003d4:	50c4      	str	r4, [r0, r3]
 80003d6:	3304      	adds	r3, #4

080003d8 <LoopCopyDataInit>:
 80003d8:	18c4      	adds	r4, r0, r3
 80003da:	428c      	cmp	r4, r1
 80003dc:	d3f9      	bcc.n	80003d2 <CopyDataInit>
 80003de:	4a09      	ldr	r2, [pc, #36]	; (8000404 <LoopFillZerobss+0x1a>)
 80003e0:	4c09      	ldr	r4, [pc, #36]	; (8000408 <LoopFillZerobss+0x1e>)
 80003e2:	2300      	movs	r3, #0
 80003e4:	e001      	b.n	80003ea <LoopFillZerobss>

080003e6 <FillZerobss>:
 80003e6:	6013      	str	r3, [r2, #0]
 80003e8:	3204      	adds	r2, #4

080003ea <LoopFillZerobss>:
 80003ea:	42a2      	cmp	r2, r4
 80003ec:	d3fb      	bcc.n	80003e6 <FillZerobss>
 80003ee:	f001 fb81 	bl	8001af4 <__libc_init_array>
 80003f2:	f7ff fed3 	bl	800019c <main>
 80003f6:	4770      	bx	lr
 80003f8:	20000000 	.word	0x20000000
 80003fc:	2000000c 	.word	0x2000000c
 8000400:	08001b98 	.word	0x08001b98
 8000404:	2000000c 	.word	0x2000000c
 8000408:	20000108 	.word	0x20000108

0800040c <ADC1_2_IRQHandler>:
 800040c:	e7fe      	b.n	800040c <ADC1_2_IRQHandler>
	...

08000410 <HAL_InitTick>:
 8000410:	b538      	push	{r3, r4, r5, lr}
 8000412:	4b0e      	ldr	r3, [pc, #56]	; (800044c <HAL_InitTick+0x3c>)
 8000414:	4605      	mov	r5, r0
 8000416:	7818      	ldrb	r0, [r3, #0]
 8000418:	f44f 737a 	mov.w	r3, #1000	; 0x3e8
 800041c:	fbb3 f3f0 	udiv	r3, r3, r0
 8000420:	4a0b      	ldr	r2, [pc, #44]	; (8000450 <HAL_InitTick+0x40>)
 8000422:	6810      	ldr	r0, [r2, #0]
 8000424:	fbb0 f0f3 	udiv	r0, r0, r3
 8000428:	f000 f89e 	bl	8000568 <HAL_SYSTICK_Config>
 800042c:	4604      	mov	r4, r0
 800042e:	b958      	cbnz	r0, 8000448 <HAL_InitTick+0x38>
 8000430:	2d0f      	cmp	r5, #15
 8000432:	d809      	bhi.n	8000448 <HAL_InitTick+0x38>
 8000434:	4602      	mov	r2, r0
 8000436:	4629      	mov	r1, r5
 8000438:	f04f 30ff 	mov.w	r0, #4294967295
 800043c:	f000 f854 	bl	80004e8 <HAL_NVIC_SetPriority>
 8000440:	4620      	mov	r0, r4
 8000442:	4b04      	ldr	r3, [pc, #16]	; (8000454 <HAL_InitTick+0x44>)
 8000444:	601d      	str	r5, [r3, #0]
 8000446:	bd38      	pop	{r3, r4, r5, pc}
 8000448:	2001      	movs	r0, #1
 800044a:	e7fc      	b.n	8000446 <HAL_InitTick+0x36>
 800044c:	20000004 	.word	0x20000004
 8000450:	20000000 	.word	0x20000000
 8000454:	20000008 	.word	0x20000008

08000458 <HAL_Init>:
 8000458:	4a07      	ldr	r2, [pc, #28]	; (8000478 <HAL_Init+0x20>)
 800045a:	b508      	push	{r3, lr}
 800045c:	6813      	ldr	r3, [r2, #0]
 800045e:	2003      	movs	r0, #3
 8000460:	f043 0310 	orr.w	r3, r3, #16
 8000464:	6013      	str	r3, [r2, #0]
 8000466:	f000 f82d 	bl	80004c4 <HAL_NVIC_SetPriorityGrouping>
 800046a:	200f      	movs	r0, #15
 800046c:	f7ff ffd0 	bl	8000410 <HAL_InitTick>
 8000470:	f7ff ff06 	bl	8000280 <HAL_MspInit>
 8000474:	2000      	movs	r0, #0
 8000476:	bd08      	pop	{r3, pc}
 8000478:	40022000 	.word	0x40022000

0800047c <HAL_IncTick>:
 800047c:	4a03      	ldr	r2, [pc, #12]	; (800048c <HAL_IncTick+0x10>)
 800047e:	4b04      	ldr	r3, [pc, #16]	; (8000490 <HAL_IncTick+0x14>)
 8000480:	6811      	ldr	r1, [r2, #0]
 8000482:	781b      	ldrb	r3, [r3, #0]
 8000484:	440b      	add	r3, r1
 8000486:	6013      	str	r3, [r2, #0]
 8000488:	4770      	bx	lr
 800048a:	bf00      	nop
 800048c:	20000104 	.word	0x20000104
 8000490:	20000004 	.word	0x20000004

08000494 <HAL_GetTick>:
 8000494:	4b01      	ldr	r3, [pc, #4]	; (800049c <HAL_GetTick+0x8>)
 8000496:	6818      	ldr	r0, [r3, #0]
 8000498:	4770      	bx	lr
 800049a:	bf00      	nop
 800049c:	20000104 	.word	0x20000104

080004a0 <HAL_Delay>:
 80004a0:	b538      	push	{r3, r4, r5, lr}
 80004a2:	4604      	mov	r4, r0
 80004a4:	f7ff fff6 	bl	8000494 <HAL_GetTick>
 80004a8:	4605      	mov	r5, r0
 80004aa:	1c63      	adds	r3, r4, #1
 80004ac:	bf1e      	ittt	ne
 80004ae:	4b04      	ldrne	r3, [pc, #16]	; (80004c0 <HAL_Delay+0x20>)
 80004b0:	781b      	ldrbne	r3, [r3, #0]
 80004b2:	18e4      	addne	r4, r4, r3
 80004b4:	f7ff ffee 	bl	8000494 <HAL_GetTick>
 80004b8:	1b43      	subs	r3, r0, r5
 80004ba:	42a3      	cmp	r3, r4
 80004bc:	d3fa      	bcc.n	80004b4 <HAL_Delay+0x14>
 80004be:	bd38      	pop	{r3, r4, r5, pc}
 80004c0:	20000004 	.word	0x20000004

080004c4 <HAL_NVIC_SetPriorityGrouping>:
 80004c4:	4907      	ldr	r1, [pc, #28]	; (80004e4 <HAL_NVIC_SetPriorityGrouping+0x20>)
 80004c6:	0203      	lsls	r3, r0, #8
 80004c8:	68ca      	ldr	r2, [r1, #12]
 80004ca:	f403 63e0 	and.w	r3, r3, #1792	; 0x700
 80004ce:	f422 62e0 	bic.w	r2, r2, #1792	; 0x700
 80004d2:	0412      	lsls	r2, r2, #16
 80004d4:	0c12      	lsrs	r2, r2, #16
 80004d6:	4313      	orrs	r3, r2
 80004d8:	f043 63bf 	orr.w	r3, r3, #100139008	; 0x5f80000
 80004dc:	f443 3300 	orr.w	r3, r3, #131072	; 0x20000
 80004e0:	60cb      	str	r3, [r1, #12]
 80004e2:	4770      	bx	lr
 80004e4:	e000ed00 	.word	0xe000ed00

080004e8 <HAL_NVIC_SetPriority>:
 80004e8:	4b16      	ldr	r3, [pc, #88]	; (8000544 <HAL_NVIC_SetPriority+0x5c>)
 80004ea:	b530      	push	{r4, r5, lr}
 80004ec:	68dc      	ldr	r4, [r3, #12]
 80004ee:	f3c4 2402 	ubfx	r4, r4, #8, #3
 80004f2:	f1c4 0307 	rsb	r3, r4, #7
 80004f6:	1d25      	adds	r5, r4, #4
 80004f8:	2b04      	cmp	r3, #4
 80004fa:	bf28      	it	cs
 80004fc:	2304      	movcs	r3, #4
 80004fe:	2d06      	cmp	r5, #6
 8000500:	f04f 35ff 	mov.w	r5, #4294967295
 8000504:	bf98      	it	ls
 8000506:	2400      	movls	r4, #0
 8000508:	fa05 f303 	lsl.w	r3, r5, r3
 800050c:	bf88      	it	hi
 800050e:	3c03      	subhi	r4, #3
 8000510:	ea21 0303 	bic.w	r3, r1, r3
 8000514:	40a3      	lsls	r3, r4
 8000516:	fa05 f404 	lsl.w	r4, r5, r4
 800051a:	ea22 0204 	bic.w	r2, r2, r4
 800051e:	2800      	cmp	r0, #0
 8000520:	ea43 0302 	orr.w	r3, r3, r2
 8000524:	bfac      	ite	ge
 8000526:	f100 4060 	addge.w	r0, r0, #3758096384	; 0xe0000000
 800052a:	4a07      	ldrlt	r2, [pc, #28]	; (8000548 <HAL_NVIC_SetPriority+0x60>)
 800052c:	ea4f 1303 	mov.w	r3, r3, lsl #4
 8000530:	b2db      	uxtb	r3, r3
 8000532:	bfab      	itete	ge
 8000534:	f500 4061 	addge.w	r0, r0, #57600	; 0xe100
 8000538:	f000 000f 	andlt.w	r0, r0, #15
 800053c:	f880 3300 	strbge.w	r3, [r0, #768]	; 0x300
 8000540:	5413      	strblt	r3, [r2, r0]
 8000542:	bd30      	pop	{r4, r5, pc}
 8000544:	e000ed00 	.word	0xe000ed00
 8000548:	e000ed14 	.word	0xe000ed14

0800054c <HAL_NVIC_EnableIRQ>:
 800054c:	2800      	cmp	r0, #0
 800054e:	db08      	blt.n	8000562 <HAL_NVIC_EnableIRQ+0x16>
 8000550:	2301      	movs	r3, #1
 8000552:	0942      	lsrs	r2, r0, #5
 8000554:	f000 001f 	and.w	r0, r0, #31
 8000558:	fa03 f000 	lsl.w	r0, r3, r0
 800055c:	4b01      	ldr	r3, [pc, #4]	; (8000564 <HAL_NVIC_EnableIRQ+0x18>)
 800055e:	f843 0022 	str.w	r0, [r3, r2, lsl #2]
 8000562:	4770      	bx	lr
 8000564:	e000e100 	.word	0xe000e100

08000568 <HAL_SYSTICK_Config>:
 8000568:	3801      	subs	r0, #1
 800056a:	f1b0 7f80 	cmp.w	r0, #16777216	; 0x1000000
 800056e:	d20b      	bcs.n	8000588 <HAL_SYSTICK_Config+0x20>
 8000570:	f04f 23e0 	mov.w	r3, #3758153728	; 0xe000e000
 8000574:	21f0      	movs	r1, #240	; 0xf0
 8000576:	4a05      	ldr	r2, [pc, #20]	; (800058c <HAL_SYSTICK_Config+0x24>)
 8000578:	6158      	str	r0, [r3, #20]
 800057a:	f882 1023 	strb.w	r1, [r2, #35]	; 0x23
 800057e:	2000      	movs	r0, #0
 8000580:	2207      	movs	r2, #7
 8000582:	6198      	str	r0, [r3, #24]
 8000584:	611a      	str	r2, [r3, #16]
 8000586:	4770      	bx	lr
 8000588:	2001      	movs	r0, #1
 800058a:	4770      	bx	lr
 800058c:	e000ed00 	.word	0xe000ed00

08000590 <HAL_DMA_Init>:
 8000590:	b510      	push	{r4, lr}
 8000592:	b348      	cbz	r0, 80005e8 <HAL_DMA_Init+0x58>
 8000594:	2214      	movs	r2, #20
 8000596:	6801      	ldr	r1, [r0, #0]
 8000598:	4b14      	ldr	r3, [pc, #80]	; (80005ec <HAL_DMA_Init+0x5c>)
 800059a:	440b      	add	r3, r1
 800059c:	fbb3 f3f2 	udiv	r3, r3, r2
 80005a0:	009b      	lsls	r3, r3, #2
 80005a2:	6403      	str	r3, [r0, #64]	; 0x40
 80005a4:	4b12      	ldr	r3, [pc, #72]	; (80005f0 <HAL_DMA_Init+0x60>)
 80005a6:	63c3      	str	r3, [r0, #60]	; 0x3c
 80005a8:	2302      	movs	r3, #2
 80005aa:	f880 3021 	strb.w	r3, [r0, #33]	; 0x21
 80005ae:	e9d0 3401 	ldrd	r3, r4, [r0, #4]
 80005b2:	4323      	orrs	r3, r4
 80005b4:	68c4      	ldr	r4, [r0, #12]
 80005b6:	680a      	ldr	r2, [r1, #0]
 80005b8:	4323      	orrs	r3, r4
 80005ba:	6904      	ldr	r4, [r0, #16]
 80005bc:	f422 527f 	bic.w	r2, r2, #16320	; 0x3fc0
 80005c0:	4323      	orrs	r3, r4
 80005c2:	6944      	ldr	r4, [r0, #20]
 80005c4:	f022 0230 	bic.w	r2, r2, #48	; 0x30
 80005c8:	4323      	orrs	r3, r4
 80005ca:	6984      	ldr	r4, [r0, #24]
 80005cc:	4323      	orrs	r3, r4
 80005ce:	69c4      	ldr	r4, [r0, #28]
 80005d0:	4323      	orrs	r3, r4
 80005d2:	4313      	orrs	r3, r2
 80005d4:	600b      	str	r3, [r1, #0]
 80005d6:	2201      	movs	r2, #1
 80005d8:	2300      	movs	r3, #0
 80005da:	6383      	str	r3, [r0, #56]	; 0x38
 80005dc:	f880 3020 	strb.w	r3, [r0, #32]
 80005e0:	f880 2021 	strb.w	r2, [r0, #33]	; 0x21
 80005e4:	4618      	mov	r0, r3
 80005e6:	bd10      	pop	{r4, pc}
 80005e8:	2001      	movs	r0, #1
 80005ea:	e7fc      	b.n	80005e6 <HAL_DMA_Init+0x56>
 80005ec:	bffdfff8 	.word	0xbffdfff8
 80005f0:	40020000 	.word	0x40020000

080005f4 <HAL_DMA_Abort_IT>:
 80005f4:	b510      	push	{r4, lr}
 80005f6:	f890 3021 	ldrb.w	r3, [r0, #33]	; 0x21
 80005fa:	2b02      	cmp	r3, #2
 80005fc:	d003      	beq.n	8000606 <HAL_DMA_Abort_IT+0x12>
 80005fe:	2304      	movs	r3, #4
 8000600:	6383      	str	r3, [r0, #56]	; 0x38
 8000602:	2001      	movs	r0, #1
 8000604:	bd10      	pop	{r4, pc}
 8000606:	6803      	ldr	r3, [r0, #0]
 8000608:	681a      	ldr	r2, [r3, #0]
 800060a:	f022 020e 	bic.w	r2, r2, #14
 800060e:	601a      	str	r2, [r3, #0]
 8000610:	681a      	ldr	r2, [r3, #0]
 8000612:	f022 0201 	bic.w	r2, r2, #1
 8000616:	601a      	str	r2, [r3, #0]
 8000618:	4a18      	ldr	r2, [pc, #96]	; (800067c <HAL_DMA_Abort_IT+0x88>)
 800061a:	4293      	cmp	r3, r2
 800061c:	d01f      	beq.n	800065e <HAL_DMA_Abort_IT+0x6a>
 800061e:	3214      	adds	r2, #20
 8000620:	4293      	cmp	r3, r2
 8000622:	d01e      	beq.n	8000662 <HAL_DMA_Abort_IT+0x6e>
 8000624:	3214      	adds	r2, #20
 8000626:	4293      	cmp	r3, r2
 8000628:	d01d      	beq.n	8000666 <HAL_DMA_Abort_IT+0x72>
 800062a:	3214      	adds	r2, #20
 800062c:	4293      	cmp	r3, r2
 800062e:	d01d      	beq.n	800066c <HAL_DMA_Abort_IT+0x78>
 8000630:	3214      	adds	r2, #20
 8000632:	4293      	cmp	r3, r2
 8000634:	d01d      	beq.n	8000672 <HAL_DMA_Abort_IT+0x7e>
 8000636:	3214      	adds	r2, #20
 8000638:	4293      	cmp	r3, r2
 800063a:	bf0c      	ite	eq
 800063c:	f44f 1380 	moveq.w	r3, #1048576	; 0x100000
 8000640:	f04f 7380 	movne.w	r3, #16777216	; 0x1000000
 8000644:	4a0e      	ldr	r2, [pc, #56]	; (8000680 <HAL_DMA_Abort_IT+0x8c>)
 8000646:	2400      	movs	r4, #0
 8000648:	6053      	str	r3, [r2, #4]
 800064a:	2301      	movs	r3, #1
 800064c:	f880 3021 	strb.w	r3, [r0, #33]	; 0x21
 8000650:	6b43      	ldr	r3, [r0, #52]	; 0x34
 8000652:	f880 4020 	strb.w	r4, [r0, #32]
 8000656:	b17b      	cbz	r3, 8000678 <HAL_DMA_Abort_IT+0x84>
 8000658:	4798      	blx	r3
 800065a:	4620      	mov	r0, r4
 800065c:	e7d2      	b.n	8000604 <HAL_DMA_Abort_IT+0x10>
 800065e:	2301      	movs	r3, #1
 8000660:	e7f0      	b.n	8000644 <HAL_DMA_Abort_IT+0x50>
 8000662:	2310      	movs	r3, #16
 8000664:	e7ee      	b.n	8000644 <HAL_DMA_Abort_IT+0x50>
 8000666:	f44f 7380 	mov.w	r3, #256	; 0x100
 800066a:	e7eb      	b.n	8000644 <HAL_DMA_Abort_IT+0x50>
 800066c:	f44f 5380 	mov.w	r3, #4096	; 0x1000
 8000670:	e7e8      	b.n	8000644 <HAL_DMA_Abort_IT+0x50>
 8000672:	f44f 3380 	mov.w	r3, #65536	; 0x10000
 8000676:	e7e5      	b.n	8000644 <HAL_DMA_Abort_IT+0x50>
 8000678:	4618      	mov	r0, r3
 800067a:	e7c3      	b.n	8000604 <HAL_DMA_Abort_IT+0x10>
 800067c:	40020008 	.word	0x40020008
 8000680:	40020000 	.word	0x40020000

08000684 <HAL_DMA_IRQHandler>:
 8000684:	b470      	push	{r4, r5, r6}
 8000686:	2504      	movs	r5, #4
 8000688:	6bc6      	ldr	r6, [r0, #60]	; 0x3c
 800068a:	6c02      	ldr	r2, [r0, #64]	; 0x40
 800068c:	6834      	ldr	r4, [r6, #0]
 800068e:	6803      	ldr	r3, [r0, #0]
 8000690:	4095      	lsls	r5, r2
 8000692:	4225      	tst	r5, r4
 8000694:	6819      	ldr	r1, [r3, #0]
 8000696:	d032      	beq.n	80006fe <HAL_DMA_IRQHandler+0x7a>
 8000698:	074d      	lsls	r5, r1, #29
 800069a:	d530      	bpl.n	80006fe <HAL_DMA_IRQHandler+0x7a>
 800069c:	681a      	ldr	r2, [r3, #0]
 800069e:	0696      	lsls	r6, r2, #26
 80006a0:	bf5e      	ittt	pl
 80006a2:	681a      	ldrpl	r2, [r3, #0]
 80006a4:	f022 0204 	bicpl.w	r2, r2, #4
 80006a8:	601a      	strpl	r2, [r3, #0]
 80006aa:	4a3e      	ldr	r2, [pc, #248]	; (80007a4 <HAL_DMA_IRQHandler+0x120>)
 80006ac:	4293      	cmp	r3, r2
 80006ae:	d019      	beq.n	80006e4 <HAL_DMA_IRQHandler+0x60>
 80006b0:	3214      	adds	r2, #20
 80006b2:	4293      	cmp	r3, r2
 80006b4:	d018      	beq.n	80006e8 <HAL_DMA_IRQHandler+0x64>
 80006b6:	3214      	adds	r2, #20
 80006b8:	4293      	cmp	r3, r2
 80006ba:	d017      	beq.n	80006ec <HAL_DMA_IRQHandler+0x68>
 80006bc:	3214      	adds	r2, #20
 80006be:	4293      	cmp	r3, r2
 80006c0:	d017      	beq.n	80006f2 <HAL_DMA_IRQHandler+0x6e>
 80006c2:	3214      	adds	r2, #20
 80006c4:	4293      	cmp	r3, r2
 80006c6:	d017      	beq.n	80006f8 <HAL_DMA_IRQHandler+0x74>
 80006c8:	3214      	adds	r2, #20
 80006ca:	4293      	cmp	r3, r2
 80006cc:	bf0c      	ite	eq
 80006ce:	f44f 0380 	moveq.w	r3, #4194304	; 0x400000
 80006d2:	f04f 6380 	movne.w	r3, #67108864	; 0x4000000
 80006d6:	4a34      	ldr	r2, [pc, #208]	; (80007a8 <HAL_DMA_IRQHandler+0x124>)
 80006d8:	6053      	str	r3, [r2, #4]
 80006da:	6ac3      	ldr	r3, [r0, #44]	; 0x2c
 80006dc:	2b00      	cmp	r3, #0
 80006de:	d05e      	beq.n	800079e <HAL_DMA_IRQHandler+0x11a>
 80006e0:	bc70      	pop	{r4, r5, r6}
 80006e2:	4718      	bx	r3
 80006e4:	2304      	movs	r3, #4
 80006e6:	e7f6      	b.n	80006d6 <HAL_DMA_IRQHandler+0x52>
 80006e8:	2340      	movs	r3, #64	; 0x40
 80006ea:	e7f4      	b.n	80006d6 <HAL_DMA_IRQHandler+0x52>
 80006ec:	f44f 6380 	mov.w	r3, #1024	; 0x400
 80006f0:	e7f1      	b.n	80006d6 <HAL_DMA_IRQHandler+0x52>
 80006f2:	f44f 4380 	mov.w	r3, #16384	; 0x4000
 80006f6:	e7ee      	b.n	80006d6 <HAL_DMA_IRQHandler+0x52>
 80006f8:	f44f 2380 	mov.w	r3, #262144	; 0x40000
 80006fc:	e7eb      	b.n	80006d6 <HAL_DMA_IRQHandler+0x52>
 80006fe:	2502      	movs	r5, #2
 8000700:	4095      	lsls	r5, r2
 8000702:	4225      	tst	r5, r4
 8000704:	d035      	beq.n	8000772 <HAL_DMA_IRQHandler+0xee>
 8000706:	078d      	lsls	r5, r1, #30
 8000708:	d533      	bpl.n	8000772 <HAL_DMA_IRQHandler+0xee>
 800070a:	681a      	ldr	r2, [r3, #0]
 800070c:	0694      	lsls	r4, r2, #26
 800070e:	d406      	bmi.n	800071e <HAL_DMA_IRQHandler+0x9a>
 8000710:	681a      	ldr	r2, [r3, #0]
 8000712:	f022 020a 	bic.w	r2, r2, #10
 8000716:	601a      	str	r2, [r3, #0]
 8000718:	2201      	movs	r2, #1
 800071a:	f880 2021 	strb.w	r2, [r0, #33]	; 0x21
 800071e:	4a21      	ldr	r2, [pc, #132]	; (80007a4 <HAL_DMA_IRQHandler+0x120>)
 8000720:	4293      	cmp	r3, r2
 8000722:	d019      	beq.n	8000758 <HAL_DMA_IRQHandler+0xd4>
 8000724:	3214      	adds	r2, #20
 8000726:	4293      	cmp	r3, r2
 8000728:	d018      	beq.n	800075c <HAL_DMA_IRQHandler+0xd8>
 800072a:	3214      	adds	r2, #20
 800072c:	4293      	cmp	r3, r2
 800072e:	d017      	beq.n	8000760 <HAL_DMA_IRQHandler+0xdc>
 8000730:	3214      	adds	r2, #20
 8000732:	4293      	cmp	r3, r2
 8000734:	d017      	beq.n	8000766 <HAL_DMA_IRQHandler+0xe2>
 8000736:	3214      	adds	r2, #20
 8000738:	4293      	cmp	r3, r2
 800073a:	d017      	beq.n	800076c <HAL_DMA_IRQHandler+0xe8>
 800073c:	3214      	adds	r2, #20
 800073e:	4293      	cmp	r3, r2
 8000740:	bf0c      	ite	eq
 8000742:	f44f 1300 	moveq.w	r3, #2097152	; 0x200000
 8000746:	f04f 7300 	movne.w	r3, #33554432	; 0x2000000
 800074a:	4a17      	ldr	r2, [pc, #92]	; (80007a8 <HAL_DMA_IRQHandler+0x124>)
 800074c:	6053      	str	r3, [r2, #4]
 800074e:	2300      	movs	r3, #0
 8000750:	f880 3020 	strb.w	r3, [r0, #32]
 8000754:	6a83      	ldr	r3, [r0, #40]	; 0x28
 8000756:	e7c1      	b.n	80006dc <HAL_DMA_IRQHandler+0x58>
 8000758:	2302      	movs	r3, #2
 800075a:	e7f6      	b.n	800074a <HAL_DMA_IRQHandler+0xc6>
 800075c:	2320      	movs	r3, #32
 800075e:	e7f4      	b.n	800074a <HAL_DMA_IRQHandler+0xc6>
 8000760:	f44f 7300 	mov.w	r3, #512	; 0x200
 8000764:	e7f1      	b.n	800074a <HAL_DMA_IRQHandler+0xc6>
 8000766:	f44f 5300 	mov.w	r3, #8192	; 0x2000
 800076a:	e7ee      	b.n	800074a <HAL_DMA_IRQHandler+0xc6>
 800076c:	f44f 3300 	mov.w	r3, #131072	; 0x20000
 8000770:	e7eb      	b.n	800074a <HAL_DMA_IRQHandler+0xc6>
 8000772:	2508      	movs	r5, #8
 8000774:	4095      	lsls	r5, r2
 8000776:	4225      	tst	r5, r4
 8000778:	d011      	beq.n	800079e <HAL_DMA_IRQHandler+0x11a>
 800077a:	0709      	lsls	r1, r1, #28
 800077c:	d50f      	bpl.n	800079e <HAL_DMA_IRQHandler+0x11a>
 800077e:	6819      	ldr	r1, [r3, #0]
 8000780:	f021 010e 	bic.w	r1, r1, #14
 8000784:	6019      	str	r1, [r3, #0]
 8000786:	2301      	movs	r3, #1
 8000788:	fa03 f202 	lsl.w	r2, r3, r2
 800078c:	6072      	str	r2, [r6, #4]
 800078e:	6383      	str	r3, [r0, #56]	; 0x38
 8000790:	f880 3021 	strb.w	r3, [r0, #33]	; 0x21
 8000794:	2300      	movs	r3, #0
 8000796:	f880 3020 	strb.w	r3, [r0, #32]
 800079a:	6b03      	ldr	r3, [r0, #48]	; 0x30
 800079c:	e79e      	b.n	80006dc <HAL_DMA_IRQHandler+0x58>
 800079e:	bc70      	pop	{r4, r5, r6}
 80007a0:	4770      	bx	lr
 80007a2:	bf00      	nop
 80007a4:	40020008 	.word	0x40020008
 80007a8:	40020000 	.word	0x40020000

080007ac <HAL_DMA_GetState>:
 80007ac:	f890 0021 	ldrb.w	r0, [r0, #33]	; 0x21
 80007b0:	4770      	bx	lr
	...

080007b4 <HAL_GPIO_Init>:
 80007b4:	e92d 4ff7 	stmdb	sp!, {r0, r1, r2, r4, r5, r6, r7, r8, r9, sl, fp, lr}
 80007b8:	2200      	movs	r2, #0
 80007ba:	4616      	mov	r6, r2
 80007bc:	4f61      	ldr	r7, [pc, #388]	; (8000944 <HAL_GPIO_Init+0x190>)
 80007be:	4b62      	ldr	r3, [pc, #392]	; (8000948 <HAL_GPIO_Init+0x194>)
 80007c0:	f8df c188 	ldr.w	ip, [pc, #392]	; 800094c <HAL_GPIO_Init+0x198>
 80007c4:	f8df e188 	ldr.w	lr, [pc, #392]	; 8000950 <HAL_GPIO_Init+0x19c>
 80007c8:	680d      	ldr	r5, [r1, #0]
 80007ca:	fa35 f406 	lsrs.w	r4, r5, r6
 80007ce:	d102      	bne.n	80007d6 <HAL_GPIO_Init+0x22>
 80007d0:	b003      	add	sp, #12
 80007d2:	e8bd 8ff0 	ldmia.w	sp!, {r4, r5, r6, r7, r8, r9, sl, fp, pc}
 80007d6:	f04f 0801 	mov.w	r8, #1
 80007da:	fa08 f806 	lsl.w	r8, r8, r6
 80007de:	ea05 0408 	and.w	r4, r5, r8
 80007e2:	ea38 0505 	bics.w	r5, r8, r5
 80007e6:	d177      	bne.n	80008d8 <HAL_GPIO_Init+0x124>
 80007e8:	684d      	ldr	r5, [r1, #4]
 80007ea:	2d03      	cmp	r5, #3
 80007ec:	d807      	bhi.n	80007fe <HAL_GPIO_Init+0x4a>
 80007ee:	3d01      	subs	r5, #1
 80007f0:	2d02      	cmp	r5, #2
 80007f2:	f200 8082 	bhi.w	80008fa <HAL_GPIO_Init+0x146>
 80007f6:	e8df f005 	tbb	[pc, r5]
 80007fa:	9792      	.short	0x9792
 80007fc:	9d          	.byte	0x9d
 80007fd:	00          	.byte	0x00
 80007fe:	2d12      	cmp	r5, #18
 8000800:	f000 8095 	beq.w	800092e <HAL_GPIO_Init+0x17a>
 8000804:	d86a      	bhi.n	80008dc <HAL_GPIO_Init+0x128>
 8000806:	2d11      	cmp	r5, #17
 8000808:	f000 808b 	beq.w	8000922 <HAL_GPIO_Init+0x16e>
 800080c:	2cff      	cmp	r4, #255	; 0xff
 800080e:	bf98      	it	ls
 8000810:	4682      	movls	sl, r0
 8000812:	f04f 090f 	mov.w	r9, #15
 8000816:	bf88      	it	hi
 8000818:	f100 0a04 	addhi.w	sl, r0, #4
 800081c:	ea4f 0586 	mov.w	r5, r6, lsl #2
 8000820:	f8da 8000 	ldr.w	r8, [sl]
 8000824:	bf88      	it	hi
 8000826:	3d20      	subhi	r5, #32
 8000828:	fa09 fb05 	lsl.w	fp, r9, r5
 800082c:	ea28 080b 	bic.w	r8, r8, fp
 8000830:	fa02 f505 	lsl.w	r5, r2, r5
 8000834:	ea48 0505 	orr.w	r5, r8, r5
 8000838:	f8ca 5000 	str.w	r5, [sl]
 800083c:	f8d1 a004 	ldr.w	sl, [r1, #4]
 8000840:	f01a 5f80 	tst.w	sl, #268435456	; 0x10000000
 8000844:	d048      	beq.n	80008d8 <HAL_GPIO_Init+0x124>
 8000846:	69bd      	ldr	r5, [r7, #24]
 8000848:	f026 0803 	bic.w	r8, r6, #3
 800084c:	f045 0501 	orr.w	r5, r5, #1
 8000850:	61bd      	str	r5, [r7, #24]
 8000852:	69bd      	ldr	r5, [r7, #24]
 8000854:	f108 4880 	add.w	r8, r8, #1073741824	; 0x40000000
 8000858:	f005 0501 	and.w	r5, r5, #1
 800085c:	9501      	str	r5, [sp, #4]
 800085e:	f508 3880 	add.w	r8, r8, #65536	; 0x10000
 8000862:	f006 0b03 	and.w	fp, r6, #3
 8000866:	9d01      	ldr	r5, [sp, #4]
 8000868:	ea4f 0b8b 	mov.w	fp, fp, lsl #2
 800086c:	f8d8 5008 	ldr.w	r5, [r8, #8]
 8000870:	fa09 f90b 	lsl.w	r9, r9, fp
 8000874:	ea25 0909 	bic.w	r9, r5, r9
 8000878:	4d36      	ldr	r5, [pc, #216]	; (8000954 <HAL_GPIO_Init+0x1a0>)
 800087a:	42a8      	cmp	r0, r5
 800087c:	d05e      	beq.n	800093c <HAL_GPIO_Init+0x188>
 800087e:	f505 6580 	add.w	r5, r5, #1024	; 0x400
 8000882:	42a8      	cmp	r0, r5
 8000884:	d05c      	beq.n	8000940 <HAL_GPIO_Init+0x18c>
 8000886:	f505 6580 	add.w	r5, r5, #1024	; 0x400
 800088a:	42a8      	cmp	r0, r5
 800088c:	bf0c      	ite	eq
 800088e:	2502      	moveq	r5, #2
 8000890:	2503      	movne	r5, #3
 8000892:	fa05 f50b 	lsl.w	r5, r5, fp
 8000896:	ea45 0509 	orr.w	r5, r5, r9
 800089a:	f8c8 5008 	str.w	r5, [r8, #8]
 800089e:	689d      	ldr	r5, [r3, #8]
 80008a0:	f41a 1f80 	tst.w	sl, #1048576	; 0x100000
 80008a4:	bf14      	ite	ne
 80008a6:	4325      	orrne	r5, r4
 80008a8:	43a5      	biceq	r5, r4
 80008aa:	609d      	str	r5, [r3, #8]
 80008ac:	68dd      	ldr	r5, [r3, #12]
 80008ae:	f41a 1f00 	tst.w	sl, #2097152	; 0x200000
 80008b2:	bf14      	ite	ne
 80008b4:	4325      	orrne	r5, r4
 80008b6:	43a5      	biceq	r5, r4
 80008b8:	60dd      	str	r5, [r3, #12]
 80008ba:	685d      	ldr	r5, [r3, #4]
 80008bc:	f41a 3f00 	tst.w	sl, #131072	; 0x20000
 80008c0:	bf14      	ite	ne
 80008c2:	4325      	orrne	r5, r4
 80008c4:	43a5      	biceq	r5, r4
 80008c6:	605d      	str	r5, [r3, #4]
 80008c8:	681d      	ldr	r5, [r3, #0]
 80008ca:	f41a 3f80 	tst.w	sl, #65536	; 0x10000
 80008ce:	bf14      	ite	ne
 80008d0:	432c      	orrne	r4, r5
 80008d2:	ea25 0404 	biceq.w	r4, r5, r4
 80008d6:	601c      	str	r4, [r3, #0]
 80008d8:	3601      	adds	r6, #1
 80008da:	e775      	b.n	80007c8 <HAL_GPIO_Init+0x14>
 80008dc:	f8df 9078 	ldr.w	r9, [pc, #120]	; 8000958 <HAL_GPIO_Init+0x1a4>
 80008e0:	454d      	cmp	r5, r9
 80008e2:	d00a      	beq.n	80008fa <HAL_GPIO_Init+0x146>
 80008e4:	d815      	bhi.n	8000912 <HAL_GPIO_Init+0x15e>
 80008e6:	4575      	cmp	r5, lr
 80008e8:	d007      	beq.n	80008fa <HAL_GPIO_Init+0x146>
 80008ea:	f5a9 3980 	sub.w	r9, r9, #65536	; 0x10000
 80008ee:	454d      	cmp	r5, r9
 80008f0:	d003      	beq.n	80008fa <HAL_GPIO_Init+0x146>
 80008f2:	f5a9 1980 	sub.w	r9, r9, #1048576	; 0x100000
 80008f6:	454d      	cmp	r5, r9
 80008f8:	d188      	bne.n	800080c <HAL_GPIO_Init+0x58>
 80008fa:	688a      	ldr	r2, [r1, #8]
 80008fc:	b1e2      	cbz	r2, 8000938 <HAL_GPIO_Init+0x184>
 80008fe:	2a01      	cmp	r2, #1
 8000900:	bf08      	it	eq
 8000902:	f8c0 8010 	streq.w	r8, [r0, #16]
 8000906:	f04f 0208 	mov.w	r2, #8
 800090a:	bf18      	it	ne
 800090c:	f8c0 8014 	strne.w	r8, [r0, #20]
 8000910:	e77c      	b.n	800080c <HAL_GPIO_Init+0x58>
 8000912:	f8df 9048 	ldr.w	r9, [pc, #72]	; 800095c <HAL_GPIO_Init+0x1a8>
 8000916:	454d      	cmp	r5, r9
 8000918:	d0ef      	beq.n	80008fa <HAL_GPIO_Init+0x146>
 800091a:	4565      	cmp	r5, ip
 800091c:	e7ec      	b.n	80008f8 <HAL_GPIO_Init+0x144>
 800091e:	68ca      	ldr	r2, [r1, #12]
 8000920:	e774      	b.n	800080c <HAL_GPIO_Init+0x58>
 8000922:	68ca      	ldr	r2, [r1, #12]
 8000924:	3204      	adds	r2, #4
 8000926:	e771      	b.n	800080c <HAL_GPIO_Init+0x58>
 8000928:	68ca      	ldr	r2, [r1, #12]
 800092a:	3208      	adds	r2, #8
 800092c:	e76e      	b.n	800080c <HAL_GPIO_Init+0x58>
 800092e:	68ca      	ldr	r2, [r1, #12]
 8000930:	320c      	adds	r2, #12
 8000932:	e76b      	b.n	800080c <HAL_GPIO_Init+0x58>
 8000934:	2200      	movs	r2, #0
 8000936:	e769      	b.n	800080c <HAL_GPIO_Init+0x58>
 8000938:	2204      	movs	r2, #4
 800093a:	e767      	b.n	800080c <HAL_GPIO_Init+0x58>
 800093c:	2500      	movs	r5, #0
 800093e:	e7a8      	b.n	8000892 <HAL_GPIO_Init+0xde>
 8000940:	2501      	movs	r5, #1
 8000942:	e7a6      	b.n	8000892 <HAL_GPIO_Init+0xde>
 8000944:	40021000 	.word	0x40021000
 8000948:	40010400 	.word	0x40010400
 800094c:	10320000 	.word	0x10320000
 8000950:	10120000 	.word	0x10120000
 8000954:	40010800 	.word	0x40010800
 8000958:	10220000 	.word	0x10220000
 800095c:	10310000 	.word	0x10310000

08000960 <HAL_GPIO_WritePin>:
 8000960:	b10a      	cbz	r2, 8000966 <HAL_GPIO_WritePin+0x6>
 8000962:	6101      	str	r1, [r0, #16]
 8000964:	4770      	bx	lr
 8000966:	0409      	lsls	r1, r1, #16
 8000968:	e7fb      	b.n	8000962 <HAL_GPIO_WritePin+0x2>

0800096a <HAL_GPIO_TogglePin>:
 800096a:	68c3      	ldr	r3, [r0, #12]
 800096c:	ea01 0203 	and.w	r2, r1, r3
 8000970:	ea21 0103 	bic.w	r1, r1, r3
 8000974:	ea41 4102 	orr.w	r1, r1, r2, lsl #16
 8000978:	6101      	str	r1, [r0, #16]
 800097a:	4770      	bx	lr

0800097c <HAL_I2C_Init>:
 800097c:	b570      	push	{r4, r5, r6, lr}
 800097e:	4604      	mov	r4, r0
 8000980:	b908      	cbnz	r0, 8000986 <HAL_I2C_Init+0xa>
 8000982:	2001      	movs	r0, #1
 8000984:	bd70      	pop	{r4, r5, r6, pc}
 8000986:	f890 303d 	ldrb.w	r3, [r0, #61]	; 0x3d
 800098a:	f003 02ff 	and.w	r2, r3, #255	; 0xff
 800098e:	b91b      	cbnz	r3, 8000998 <HAL_I2C_Init+0x1c>
 8000990:	f880 203c 	strb.w	r2, [r0, #60]	; 0x3c
 8000994:	f7ff fc8c 	bl	80002b0 <HAL_I2C_MspInit>
 8000998:	2324      	movs	r3, #36	; 0x24
 800099a:	f884 303d 	strb.w	r3, [r4, #61]	; 0x3d
 800099e:	6823      	ldr	r3, [r4, #0]
 80009a0:	681a      	ldr	r2, [r3, #0]
 80009a2:	f022 0201 	bic.w	r2, r2, #1
 80009a6:	601a      	str	r2, [r3, #0]
 80009a8:	681a      	ldr	r2, [r3, #0]
 80009aa:	f442 4200 	orr.w	r2, r2, #32768	; 0x8000
 80009ae:	601a      	str	r2, [r3, #0]
 80009b0:	681a      	ldr	r2, [r3, #0]
 80009b2:	f422 4200 	bic.w	r2, r2, #32768	; 0x8000
 80009b6:	601a      	str	r2, [r3, #0]
 80009b8:	f001 f88c 	bl	8001ad4 <HAL_RCC_GetPCLK1Freq>
 80009bc:	4a3f      	ldr	r2, [pc, #252]	; (8000abc <HAL_I2C_Init+0x140>)
 80009be:	6863      	ldr	r3, [r4, #4]
 80009c0:	4293      	cmp	r3, r2
 80009c2:	bf94      	ite	ls
 80009c4:	4a3e      	ldrls	r2, [pc, #248]	; (8000ac0 <HAL_I2C_Init+0x144>)
 80009c6:	4a3f      	ldrhi	r2, [pc, #252]	; (8000ac4 <HAL_I2C_Init+0x148>)
 80009c8:	4290      	cmp	r0, r2
 80009ca:	bf8c      	ite	hi
 80009cc:	2200      	movhi	r2, #0
 80009ce:	2201      	movls	r2, #1
 80009d0:	2a00      	cmp	r2, #0
 80009d2:	d1d6      	bne.n	8000982 <HAL_I2C_Init+0x6>
 80009d4:	4e39      	ldr	r6, [pc, #228]	; (8000abc <HAL_I2C_Init+0x140>)
 80009d6:	493c      	ldr	r1, [pc, #240]	; (8000ac8 <HAL_I2C_Init+0x14c>)
 80009d8:	42b3      	cmp	r3, r6
 80009da:	fbb0 f1f1 	udiv	r1, r0, r1
 80009de:	bf88      	it	hi
 80009e0:	f44f 7696 	movhi.w	r6, #300	; 0x12c
 80009e4:	6822      	ldr	r2, [r4, #0]
 80009e6:	f100 30ff 	add.w	r0, r0, #4294967295
 80009ea:	6855      	ldr	r5, [r2, #4]
 80009ec:	f025 053f 	bic.w	r5, r5, #63	; 0x3f
 80009f0:	ea45 0501 	orr.w	r5, r5, r1
 80009f4:	bf82      	ittt	hi
 80009f6:	4371      	mulhi	r1, r6
 80009f8:	f44f 767a 	movhi.w	r6, #1000	; 0x3e8
 80009fc:	fbb1 f1f6 	udivhi	r1, r1, r6
 8000a00:	6055      	str	r5, [r2, #4]
 8000a02:	6a15      	ldr	r5, [r2, #32]
 8000a04:	3101      	adds	r1, #1
 8000a06:	f025 053f 	bic.w	r5, r5, #63	; 0x3f
 8000a0a:	4329      	orrs	r1, r5
 8000a0c:	6211      	str	r1, [r2, #32]
 8000a0e:	69d1      	ldr	r1, [r2, #28]
 8000a10:	4d2a      	ldr	r5, [pc, #168]	; (8000abc <HAL_I2C_Init+0x140>)
 8000a12:	f421 414f 	bic.w	r1, r1, #52992	; 0xcf00
 8000a16:	42ab      	cmp	r3, r5
 8000a18:	f021 01ff 	bic.w	r1, r1, #255	; 0xff
 8000a1c:	d832      	bhi.n	8000a84 <HAL_I2C_Init+0x108>
 8000a1e:	005b      	lsls	r3, r3, #1
 8000a20:	fbb0 f0f3 	udiv	r0, r0, r3
 8000a24:	1c43      	adds	r3, r0, #1
 8000a26:	f640 70fc 	movw	r0, #4092	; 0xffc
 8000a2a:	4203      	tst	r3, r0
 8000a2c:	d042      	beq.n	8000ab4 <HAL_I2C_Init+0x138>
 8000a2e:	f3c3 030b 	ubfx	r3, r3, #0, #12
 8000a32:	430b      	orrs	r3, r1
 8000a34:	61d3      	str	r3, [r2, #28]
 8000a36:	6811      	ldr	r1, [r2, #0]
 8000a38:	e9d4 3007 	ldrd	r3, r0, [r4, #28]
 8000a3c:	f021 01c0 	bic.w	r1, r1, #192	; 0xc0
 8000a40:	4303      	orrs	r3, r0
 8000a42:	430b      	orrs	r3, r1
 8000a44:	6013      	str	r3, [r2, #0]
 8000a46:	6891      	ldr	r1, [r2, #8]
 8000a48:	e9d4 0303 	ldrd	r0, r3, [r4, #12]
 8000a4c:	f421 4103 	bic.w	r1, r1, #33536	; 0x8300
 8000a50:	4303      	orrs	r3, r0
 8000a52:	f021 01ff 	bic.w	r1, r1, #255	; 0xff
 8000a56:	430b      	orrs	r3, r1
 8000a58:	6093      	str	r3, [r2, #8]
 8000a5a:	68d1      	ldr	r1, [r2, #12]
 8000a5c:	e9d4 3005 	ldrd	r3, r0, [r4, #20]
 8000a60:	f021 01ff 	bic.w	r1, r1, #255	; 0xff
 8000a64:	4303      	orrs	r3, r0
 8000a66:	430b      	orrs	r3, r1
 8000a68:	60d3      	str	r3, [r2, #12]
 8000a6a:	6813      	ldr	r3, [r2, #0]
 8000a6c:	2000      	movs	r0, #0
 8000a6e:	f043 0301 	orr.w	r3, r3, #1
 8000a72:	6013      	str	r3, [r2, #0]
 8000a74:	2320      	movs	r3, #32
 8000a76:	6420      	str	r0, [r4, #64]	; 0x40
 8000a78:	f884 303d 	strb.w	r3, [r4, #61]	; 0x3d
 8000a7c:	6320      	str	r0, [r4, #48]	; 0x30
 8000a7e:	f884 003e 	strb.w	r0, [r4, #62]	; 0x3e
 8000a82:	e77f      	b.n	8000984 <HAL_I2C_Init+0x8>
 8000a84:	68a5      	ldr	r5, [r4, #8]
 8000a86:	b955      	cbnz	r5, 8000a9e <HAL_I2C_Init+0x122>
 8000a88:	eb03 0343 	add.w	r3, r3, r3, lsl #1
 8000a8c:	fbb0 f3f3 	udiv	r3, r0, r3
 8000a90:	3301      	adds	r3, #1
 8000a92:	f3c3 030b 	ubfx	r3, r3, #0, #12
 8000a96:	b17b      	cbz	r3, 8000ab8 <HAL_I2C_Init+0x13c>
 8000a98:	f443 4300 	orr.w	r3, r3, #32768	; 0x8000
 8000a9c:	e7c9      	b.n	8000a32 <HAL_I2C_Init+0xb6>
 8000a9e:	2519      	movs	r5, #25
 8000aa0:	436b      	muls	r3, r5
 8000aa2:	fbb0 f3f3 	udiv	r3, r0, r3
 8000aa6:	3301      	adds	r3, #1
 8000aa8:	f3c3 030b 	ubfx	r3, r3, #0, #12
 8000aac:	b123      	cbz	r3, 8000ab8 <HAL_I2C_Init+0x13c>
 8000aae:	f443 4340 	orr.w	r3, r3, #49152	; 0xc000
 8000ab2:	e7be      	b.n	8000a32 <HAL_I2C_Init+0xb6>
 8000ab4:	2304      	movs	r3, #4
 8000ab6:	e7bc      	b.n	8000a32 <HAL_I2C_Init+0xb6>
 8000ab8:	2301      	movs	r3, #1
 8000aba:	e7ba      	b.n	8000a32 <HAL_I2C_Init+0xb6>
 8000abc:	000186a0 	.word	0x000186a0
 8000ac0:	001e847f 	.word	0x001e847f
 8000ac4:	003d08ff 	.word	0x003d08ff
 8000ac8:	000f4240 	.word	0x000f4240

08000acc <HAL_I2C_MasterTxCpltCallback>:
 8000acc:	4770      	bx	lr

08000ace <HAL_I2C_MasterRxCpltCallback>:
 8000ace:	4770      	bx	lr

08000ad0 <HAL_I2C_SlaveTxCpltCallback>:
 8000ad0:	4770      	bx	lr

08000ad2 <HAL_I2C_SlaveRxCpltCallback>:
 8000ad2:	4770      	bx	lr

08000ad4 <HAL_I2C_AddrCallback>:
 8000ad4:	4770      	bx	lr

08000ad6 <HAL_I2C_ListenCpltCallback>:
 8000ad6:	4770      	bx	lr

08000ad8 <HAL_I2C_MemTxCpltCallback>:
 8000ad8:	4770      	bx	lr

08000ada <I2C_MemoryTransmit_TXE_BTF>:
 8000ada:	f890 203d 	ldrb.w	r2, [r0, #61]	; 0x3d
 8000ade:	b508      	push	{r3, lr}
 8000ae0:	6d03      	ldr	r3, [r0, #80]	; 0x50
 8000ae2:	b2d2      	uxtb	r2, r2
 8000ae4:	b983      	cbnz	r3, 8000b08 <I2C_MemoryTransmit_TXE_BTF+0x2e>
 8000ae6:	6cc3      	ldr	r3, [r0, #76]	; 0x4c
 8000ae8:	6802      	ldr	r2, [r0, #0]
 8000aea:	2b01      	cmp	r3, #1
 8000aec:	6c83      	ldr	r3, [r0, #72]	; 0x48
 8000aee:	d105      	bne.n	8000afc <I2C_MemoryTransmit_TXE_BTF+0x22>
 8000af0:	b2db      	uxtb	r3, r3
 8000af2:	6113      	str	r3, [r2, #16]
 8000af4:	6d03      	ldr	r3, [r0, #80]	; 0x50
 8000af6:	3302      	adds	r3, #2
 8000af8:	6503      	str	r3, [r0, #80]	; 0x50
 8000afa:	bd08      	pop	{r3, pc}
 8000afc:	f3c3 2307 	ubfx	r3, r3, #8, #8
 8000b00:	6113      	str	r3, [r2, #16]
 8000b02:	6d03      	ldr	r3, [r0, #80]	; 0x50
 8000b04:	3301      	adds	r3, #1
 8000b06:	e7f7      	b.n	8000af8 <I2C_MemoryTransmit_TXE_BTF+0x1e>
 8000b08:	6d03      	ldr	r3, [r0, #80]	; 0x50
 8000b0a:	2b01      	cmp	r3, #1
 8000b0c:	d103      	bne.n	8000b16 <I2C_MemoryTransmit_TXE_BTF+0x3c>
 8000b0e:	6c83      	ldr	r3, [r0, #72]	; 0x48
 8000b10:	6802      	ldr	r2, [r0, #0]
 8000b12:	b2db      	uxtb	r3, r3
 8000b14:	e7f4      	b.n	8000b00 <I2C_MemoryTransmit_TXE_BTF+0x26>
 8000b16:	6d03      	ldr	r3, [r0, #80]	; 0x50
 8000b18:	2b02      	cmp	r3, #2
 8000b1a:	d12f      	bne.n	8000b7c <I2C_MemoryTransmit_TXE_BTF+0xa2>
 8000b1c:	2a22      	cmp	r2, #34	; 0x22
 8000b1e:	d105      	bne.n	8000b2c <I2C_MemoryTransmit_TXE_BTF+0x52>
 8000b20:	6802      	ldr	r2, [r0, #0]
 8000b22:	6813      	ldr	r3, [r2, #0]
 8000b24:	f443 7380 	orr.w	r3, r3, #256	; 0x100
 8000b28:	6013      	str	r3, [r2, #0]
 8000b2a:	e7ea      	b.n	8000b02 <I2C_MemoryTransmit_TXE_BTF+0x28>
 8000b2c:	8d43      	ldrh	r3, [r0, #42]	; 0x2a
 8000b2e:	b29b      	uxth	r3, r3
 8000b30:	b163      	cbz	r3, 8000b4c <I2C_MemoryTransmit_TXE_BTF+0x72>
 8000b32:	2a21      	cmp	r2, #33	; 0x21
 8000b34:	d10a      	bne.n	8000b4c <I2C_MemoryTransmit_TXE_BTF+0x72>
 8000b36:	6a43      	ldr	r3, [r0, #36]	; 0x24
 8000b38:	6802      	ldr	r2, [r0, #0]
 8000b3a:	f813 1b01 	ldrb.w	r1, [r3], #1
 8000b3e:	6111      	str	r1, [r2, #16]
 8000b40:	6243      	str	r3, [r0, #36]	; 0x24
 8000b42:	8d43      	ldrh	r3, [r0, #42]	; 0x2a
 8000b44:	3b01      	subs	r3, #1
 8000b46:	b29b      	uxth	r3, r3
 8000b48:	8543      	strh	r3, [r0, #42]	; 0x2a
 8000b4a:	e7d6      	b.n	8000afa <I2C_MemoryTransmit_TXE_BTF+0x20>
 8000b4c:	8d43      	ldrh	r3, [r0, #42]	; 0x2a
 8000b4e:	b29b      	uxth	r3, r3
 8000b50:	2b00      	cmp	r3, #0
 8000b52:	d1d2      	bne.n	8000afa <I2C_MemoryTransmit_TXE_BTF+0x20>
 8000b54:	2a21      	cmp	r2, #33	; 0x21
 8000b56:	d1d0      	bne.n	8000afa <I2C_MemoryTransmit_TXE_BTF+0x20>
 8000b58:	6802      	ldr	r2, [r0, #0]
 8000b5a:	6851      	ldr	r1, [r2, #4]
 8000b5c:	f421 61e0 	bic.w	r1, r1, #1792	; 0x700
 8000b60:	6051      	str	r1, [r2, #4]
 8000b62:	6811      	ldr	r1, [r2, #0]
 8000b64:	f441 7100 	orr.w	r1, r1, #512	; 0x200
 8000b68:	6011      	str	r1, [r2, #0]
 8000b6a:	2220      	movs	r2, #32
 8000b6c:	6303      	str	r3, [r0, #48]	; 0x30
 8000b6e:	f880 203d 	strb.w	r2, [r0, #61]	; 0x3d
 8000b72:	f880 303e 	strb.w	r3, [r0, #62]	; 0x3e
 8000b76:	f7ff ffaf 	bl	8000ad8 <HAL_I2C_MemTxCpltCallback>
 8000b7a:	e7be      	b.n	8000afa <I2C_MemoryTransmit_TXE_BTF+0x20>
 8000b7c:	6803      	ldr	r3, [r0, #0]
 8000b7e:	695a      	ldr	r2, [r3, #20]
 8000b80:	0612      	lsls	r2, r2, #24
 8000b82:	bf44      	itt	mi
 8000b84:	2200      	movmi	r2, #0
 8000b86:	611a      	strmi	r2, [r3, #16]
 8000b88:	e7b7      	b.n	8000afa <I2C_MemoryTransmit_TXE_BTF+0x20>

08000b8a <HAL_I2C_MemRxCpltCallback>:
 8000b8a:	4770      	bx	lr

08000b8c <HAL_I2C_ErrorCallback>:
 8000b8c:	4770      	bx	lr

08000b8e <HAL_I2C_AbortCpltCallback>:
 8000b8e:	4770      	bx	lr

08000b90 <I2C_DMAAbort>:
 8000b90:	2300      	movs	r3, #0
 8000b92:	b537      	push	{r0, r1, r2, r4, r5, lr}
 8000b94:	f246 11a8 	movw	r1, #25000	; 0x61a8
 8000b98:	9301      	str	r3, [sp, #4]
 8000b9a:	4b2c      	ldr	r3, [pc, #176]	; (8000c4c <I2C_DMAAbort+0xbc>)
 8000b9c:	6a40      	ldr	r0, [r0, #36]	; 0x24
 8000b9e:	681b      	ldr	r3, [r3, #0]
 8000ba0:	f890 203d 	ldrb.w	r2, [r0, #61]	; 0x3d
 8000ba4:	fbb3 f3f1 	udiv	r3, r3, r1
 8000ba8:	2123      	movs	r1, #35	; 0x23
 8000baa:	434b      	muls	r3, r1
 8000bac:	9301      	str	r3, [sp, #4]
 8000bae:	6803      	ldr	r3, [r0, #0]
 8000bb0:	b2d2      	uxtb	r2, r2
 8000bb2:	9901      	ldr	r1, [sp, #4]
 8000bb4:	bb41      	cbnz	r1, 8000c08 <I2C_DMAAbort+0x78>
 8000bb6:	6c01      	ldr	r1, [r0, #64]	; 0x40
 8000bb8:	f041 0120 	orr.w	r1, r1, #32
 8000bbc:	6401      	str	r1, [r0, #64]	; 0x40
 8000bbe:	6b44      	ldr	r4, [r0, #52]	; 0x34
 8000bc0:	b10c      	cbz	r4, 8000bc6 <I2C_DMAAbort+0x36>
 8000bc2:	2100      	movs	r1, #0
 8000bc4:	62a1      	str	r1, [r4, #40]	; 0x28
 8000bc6:	6b81      	ldr	r1, [r0, #56]	; 0x38
 8000bc8:	b109      	cbz	r1, 8000bce <I2C_DMAAbort+0x3e>
 8000bca:	2500      	movs	r5, #0
 8000bcc:	628d      	str	r5, [r1, #40]	; 0x28
 8000bce:	681d      	ldr	r5, [r3, #0]
 8000bd0:	f425 6580 	bic.w	r5, r5, #1024	; 0x400
 8000bd4:	601d      	str	r5, [r3, #0]
 8000bd6:	2500      	movs	r5, #0
 8000bd8:	8545      	strh	r5, [r0, #42]	; 0x2a
 8000bda:	b104      	cbz	r4, 8000bde <I2C_DMAAbort+0x4e>
 8000bdc:	6365      	str	r5, [r4, #52]	; 0x34
 8000bde:	b101      	cbz	r1, 8000be2 <I2C_DMAAbort+0x52>
 8000be0:	634d      	str	r5, [r1, #52]	; 0x34
 8000be2:	6819      	ldr	r1, [r3, #0]
 8000be4:	f021 0101 	bic.w	r1, r1, #1
 8000be8:	6019      	str	r1, [r3, #0]
 8000bea:	f890 103d 	ldrb.w	r1, [r0, #61]	; 0x3d
 8000bee:	2960      	cmp	r1, #96	; 0x60
 8000bf0:	d111      	bne.n	8000c16 <I2C_DMAAbort+0x86>
 8000bf2:	2320      	movs	r3, #32
 8000bf4:	f880 303d 	strb.w	r3, [r0, #61]	; 0x3d
 8000bf8:	2300      	movs	r3, #0
 8000bfa:	f880 303e 	strb.w	r3, [r0, #62]	; 0x3e
 8000bfe:	6403      	str	r3, [r0, #64]	; 0x40
 8000c00:	f7ff ffc5 	bl	8000b8e <HAL_I2C_AbortCpltCallback>
 8000c04:	b003      	add	sp, #12
 8000c06:	bd30      	pop	{r4, r5, pc}
 8000c08:	9901      	ldr	r1, [sp, #4]
 8000c0a:	3901      	subs	r1, #1
 8000c0c:	9101      	str	r1, [sp, #4]
 8000c0e:	6819      	ldr	r1, [r3, #0]
 8000c10:	0589      	lsls	r1, r1, #22
 8000c12:	d4ce      	bmi.n	8000bb2 <I2C_DMAAbort+0x22>
 8000c14:	e7d3      	b.n	8000bbe <I2C_DMAAbort+0x2e>
 8000c16:	f002 0228 	and.w	r2, r2, #40	; 0x28
 8000c1a:	2a28      	cmp	r2, #40	; 0x28
 8000c1c:	d10e      	bne.n	8000c3c <I2C_DMAAbort+0xac>
 8000c1e:	6819      	ldr	r1, [r3, #0]
 8000c20:	f041 0101 	orr.w	r1, r1, #1
 8000c24:	6019      	str	r1, [r3, #0]
 8000c26:	6819      	ldr	r1, [r3, #0]
 8000c28:	f441 6180 	orr.w	r1, r1, #1024	; 0x400
 8000c2c:	6019      	str	r1, [r3, #0]
 8000c2e:	2300      	movs	r3, #0
 8000c30:	6303      	str	r3, [r0, #48]	; 0x30
 8000c32:	f880 203d 	strb.w	r2, [r0, #61]	; 0x3d
 8000c36:	f7ff ffa9 	bl	8000b8c <HAL_I2C_ErrorCallback>
 8000c3a:	e7e3      	b.n	8000c04 <I2C_DMAAbort+0x74>
 8000c3c:	2320      	movs	r3, #32
 8000c3e:	f880 303d 	strb.w	r3, [r0, #61]	; 0x3d
 8000c42:	2300      	movs	r3, #0
 8000c44:	f880 303e 	strb.w	r3, [r0, #62]	; 0x3e
 8000c48:	e7f5      	b.n	8000c36 <I2C_DMAAbort+0xa6>
 8000c4a:	bf00      	nop
 8000c4c:	20000000 	.word	0x20000000

08000c50 <I2C_ITError>:
 8000c50:	b510      	push	{r4, lr}
 8000c52:	f890 203d 	ldrb.w	r2, [r0, #61]	; 0x3d
 8000c56:	f890 303e 	ldrb.w	r3, [r0, #62]	; 0x3e
 8000c5a:	4604      	mov	r4, r0
 8000c5c:	2b10      	cmp	r3, #16
 8000c5e:	b2d9      	uxtb	r1, r3
 8000c60:	b2d2      	uxtb	r2, r2
 8000c62:	6803      	ldr	r3, [r0, #0]
 8000c64:	d001      	beq.n	8000c6a <I2C_ITError+0x1a>
 8000c66:	2940      	cmp	r1, #64	; 0x40
 8000c68:	d113      	bne.n	8000c92 <I2C_ITError+0x42>
 8000c6a:	2a22      	cmp	r2, #34	; 0x22
 8000c6c:	d111      	bne.n	8000c92 <I2C_ITError+0x42>
 8000c6e:	6819      	ldr	r1, [r3, #0]
 8000c70:	f421 6100 	bic.w	r1, r1, #2048	; 0x800
 8000c74:	6019      	str	r1, [r3, #0]
 8000c76:	6859      	ldr	r1, [r3, #4]
 8000c78:	f411 6100 	ands.w	r1, r1, #2048	; 0x800
 8000c7c:	d106      	bne.n	8000c8c <I2C_ITError+0x3c>
 8000c7e:	2a60      	cmp	r2, #96	; 0x60
 8000c80:	bf1e      	ittt	ne
 8000c82:	2220      	movne	r2, #32
 8000c84:	f884 203d 	strbne.w	r2, [r4, #61]	; 0x3d
 8000c88:	f884 103e 	strbne.w	r1, [r4, #62]	; 0x3e
 8000c8c:	2200      	movs	r2, #0
 8000c8e:	6322      	str	r2, [r4, #48]	; 0x30
 8000c90:	e007      	b.n	8000ca2 <I2C_ITError+0x52>
 8000c92:	f002 0128 	and.w	r1, r2, #40	; 0x28
 8000c96:	2928      	cmp	r1, #40	; 0x28
 8000c98:	d1ed      	bne.n	8000c76 <I2C_ITError+0x26>
 8000c9a:	2200      	movs	r2, #0
 8000c9c:	6322      	str	r2, [r4, #48]	; 0x30
 8000c9e:	f884 103d 	strb.w	r1, [r4, #61]	; 0x3d
 8000ca2:	685a      	ldr	r2, [r3, #4]
 8000ca4:	f412 6200 	ands.w	r2, r2, #2048	; 0x800
 8000ca8:	d04f      	beq.n	8000d4a <I2C_ITError+0xfa>
 8000caa:	685a      	ldr	r2, [r3, #4]
 8000cac:	6b60      	ldr	r0, [r4, #52]	; 0x34
 8000cae:	f422 6200 	bic.w	r2, r2, #2048	; 0x800
 8000cb2:	605a      	str	r2, [r3, #4]
 8000cb4:	f890 3021 	ldrb.w	r3, [r0, #33]	; 0x21
 8000cb8:	2b01      	cmp	r3, #1
 8000cba:	4b37      	ldr	r3, [pc, #220]	; (8000d98 <I2C_ITError+0x148>)
 8000cbc:	d02b      	beq.n	8000d16 <I2C_ITError+0xc6>
 8000cbe:	6343      	str	r3, [r0, #52]	; 0x34
 8000cc0:	f7ff fc98 	bl	80005f4 <HAL_DMA_Abort_IT>
 8000cc4:	b150      	cbz	r0, 8000cdc <I2C_ITError+0x8c>
 8000cc6:	6822      	ldr	r2, [r4, #0]
 8000cc8:	6b60      	ldr	r0, [r4, #52]	; 0x34
 8000cca:	6813      	ldr	r3, [r2, #0]
 8000ccc:	f023 0301 	bic.w	r3, r3, #1
 8000cd0:	6013      	str	r3, [r2, #0]
 8000cd2:	2320      	movs	r3, #32
 8000cd4:	f884 303d 	strb.w	r3, [r4, #61]	; 0x3d
 8000cd8:	6b43      	ldr	r3, [r0, #52]	; 0x34
 8000cda:	4798      	blx	r3
 8000cdc:	6c23      	ldr	r3, [r4, #64]	; 0x40
 8000cde:	0719      	lsls	r1, r3, #28
 8000ce0:	bf1f      	itttt	ne
 8000ce2:	6822      	ldrne	r2, [r4, #0]
 8000ce4:	6853      	ldrne	r3, [r2, #4]
 8000ce6:	f423 63e0 	bicne.w	r3, r3, #1792	; 0x700
 8000cea:	6053      	strne	r3, [r2, #4]
 8000cec:	f894 303d 	ldrb.w	r3, [r4, #61]	; 0x3d
 8000cf0:	6c22      	ldr	r2, [r4, #64]	; 0x40
 8000cf2:	b2db      	uxtb	r3, r3
 8000cf4:	0752      	lsls	r2, r2, #29
 8000cf6:	d50d      	bpl.n	8000d14 <I2C_ITError+0xc4>
 8000cf8:	2b28      	cmp	r3, #40	; 0x28
 8000cfa:	d10b      	bne.n	8000d14 <I2C_ITError+0xc4>
 8000cfc:	4b27      	ldr	r3, [pc, #156]	; (8000d9c <I2C_ITError+0x14c>)
 8000cfe:	2220      	movs	r2, #32
 8000d00:	62e3      	str	r3, [r4, #44]	; 0x2c
 8000d02:	2300      	movs	r3, #0
 8000d04:	4620      	mov	r0, r4
 8000d06:	6323      	str	r3, [r4, #48]	; 0x30
 8000d08:	f884 203d 	strb.w	r2, [r4, #61]	; 0x3d
 8000d0c:	f884 303e 	strb.w	r3, [r4, #62]	; 0x3e
 8000d10:	f7ff fee1 	bl	8000ad6 <HAL_I2C_ListenCpltCallback>
 8000d14:	bd10      	pop	{r4, pc}
 8000d16:	6ba0      	ldr	r0, [r4, #56]	; 0x38
 8000d18:	6343      	str	r3, [r0, #52]	; 0x34
 8000d1a:	f7ff fc6b 	bl	80005f4 <HAL_DMA_Abort_IT>
 8000d1e:	2800      	cmp	r0, #0
 8000d20:	d0dc      	beq.n	8000cdc <I2C_ITError+0x8c>
 8000d22:	6823      	ldr	r3, [r4, #0]
 8000d24:	695a      	ldr	r2, [r3, #20]
 8000d26:	0651      	lsls	r1, r2, #25
 8000d28:	d505      	bpl.n	8000d36 <I2C_ITError+0xe6>
 8000d2a:	691a      	ldr	r2, [r3, #16]
 8000d2c:	6a63      	ldr	r3, [r4, #36]	; 0x24
 8000d2e:	701a      	strb	r2, [r3, #0]
 8000d30:	6a63      	ldr	r3, [r4, #36]	; 0x24
 8000d32:	3301      	adds	r3, #1
 8000d34:	6263      	str	r3, [r4, #36]	; 0x24
 8000d36:	6822      	ldr	r2, [r4, #0]
 8000d38:	6ba0      	ldr	r0, [r4, #56]	; 0x38
 8000d3a:	6813      	ldr	r3, [r2, #0]
 8000d3c:	f023 0301 	bic.w	r3, r3, #1
 8000d40:	6013      	str	r3, [r2, #0]
 8000d42:	2320      	movs	r3, #32
 8000d44:	f884 303d 	strb.w	r3, [r4, #61]	; 0x3d
 8000d48:	e7c6      	b.n	8000cd8 <I2C_ITError+0x88>
 8000d4a:	f894 103d 	ldrb.w	r1, [r4, #61]	; 0x3d
 8000d4e:	2960      	cmp	r1, #96	; 0x60
 8000d50:	d115      	bne.n	8000d7e <I2C_ITError+0x12e>
 8000d52:	2120      	movs	r1, #32
 8000d54:	f884 103d 	strb.w	r1, [r4, #61]	; 0x3d
 8000d58:	6422      	str	r2, [r4, #64]	; 0x40
 8000d5a:	695a      	ldr	r2, [r3, #20]
 8000d5c:	0652      	lsls	r2, r2, #25
 8000d5e:	d505      	bpl.n	8000d6c <I2C_ITError+0x11c>
 8000d60:	691a      	ldr	r2, [r3, #16]
 8000d62:	6a63      	ldr	r3, [r4, #36]	; 0x24
 8000d64:	701a      	strb	r2, [r3, #0]
 8000d66:	6a63      	ldr	r3, [r4, #36]	; 0x24
 8000d68:	3301      	adds	r3, #1
 8000d6a:	6263      	str	r3, [r4, #36]	; 0x24
 8000d6c:	6822      	ldr	r2, [r4, #0]
 8000d6e:	4620      	mov	r0, r4
 8000d70:	6813      	ldr	r3, [r2, #0]
 8000d72:	f023 0301 	bic.w	r3, r3, #1
 8000d76:	6013      	str	r3, [r2, #0]
 8000d78:	f7ff ff09 	bl	8000b8e <HAL_I2C_AbortCpltCallback>
 8000d7c:	e7ae      	b.n	8000cdc <I2C_ITError+0x8c>
 8000d7e:	695a      	ldr	r2, [r3, #20]
 8000d80:	0650      	lsls	r0, r2, #25
 8000d82:	d505      	bpl.n	8000d90 <I2C_ITError+0x140>
 8000d84:	691a      	ldr	r2, [r3, #16]
 8000d86:	6a63      	ldr	r3, [r4, #36]	; 0x24
 8000d88:	701a      	strb	r2, [r3, #0]
 8000d8a:	6a63      	ldr	r3, [r4, #36]	; 0x24
 8000d8c:	3301      	adds	r3, #1
 8000d8e:	6263      	str	r3, [r4, #36]	; 0x24
 8000d90:	4620      	mov	r0, r4
 8000d92:	f7ff fefb 	bl	8000b8c <HAL_I2C_ErrorCallback>
 8000d96:	e7a1      	b.n	8000cdc <I2C_ITError+0x8c>
 8000d98:	08000b91 	.word	0x08000b91
 8000d9c:	ffff0000 	.word	0xffff0000

08000da0 <HAL_I2C_EV_IRQHandler>:
 8000da0:	b5f0      	push	{r4, r5, r6, r7, lr}
 8000da2:	4604      	mov	r4, r0
 8000da4:	6803      	ldr	r3, [r0, #0]
 8000da6:	b08f      	sub	sp, #60	; 0x3c
 8000da8:	685a      	ldr	r2, [r3, #4]
 8000daa:	6ac6      	ldr	r6, [r0, #44]	; 0x2c
 8000dac:	f890 003e 	ldrb.w	r0, [r0, #62]	; 0x3e
 8000db0:	f894 103d 	ldrb.w	r1, [r4, #61]	; 0x3d
 8000db4:	2810      	cmp	r0, #16
 8000db6:	b2c5      	uxtb	r5, r0
 8000db8:	b2c9      	uxtb	r1, r1
 8000dba:	d002      	beq.n	8000dc2 <HAL_I2C_EV_IRQHandler+0x22>
 8000dbc:	2d40      	cmp	r5, #64	; 0x40
 8000dbe:	f040 82ca 	bne.w	8001356 <HAL_I2C_EV_IRQHandler+0x5b6>
 8000dc2:	699f      	ldr	r7, [r3, #24]
 8000dc4:	6958      	ldr	r0, [r3, #20]
 8000dc6:	f010 0f01 	tst.w	r0, #1
 8000dca:	d107      	bne.n	8000ddc <HAL_I2C_EV_IRQHandler+0x3c>
 8000dcc:	f5b6 0f2a 	cmp.w	r6, #11141120	; 0xaa0000
 8000dd0:	d002      	beq.n	8000dd8 <HAL_I2C_EV_IRQHandler+0x38>
 8000dd2:	f1b6 4f2a 	cmp.w	r6, #2852126720	; 0xaa000000
 8000dd6:	d151      	bne.n	8000e7c <HAL_I2C_EV_IRQHandler+0xdc>
 8000dd8:	b00f      	add	sp, #60	; 0x3c
 8000dda:	bdf0      	pop	{r4, r5, r6, r7, pc}
 8000ddc:	0596      	lsls	r6, r2, #22
 8000dde:	d54d      	bpl.n	8000e7c <HAL_I2C_EV_IRQHandler+0xdc>
 8000de0:	6ae2      	ldr	r2, [r4, #44]	; 0x2c
 8000de2:	f5b2 0f2a 	cmp.w	r2, #11141120	; 0xaa0000
 8000de6:	d10c      	bne.n	8000e02 <HAL_I2C_EV_IRQHandler+0x62>
 8000de8:	2201      	movs	r2, #1
 8000dea:	62e2      	str	r2, [r4, #44]	; 0x2c
 8000dec:	f894 203e 	ldrb.w	r2, [r4, #62]	; 0x3e
 8000df0:	2a40      	cmp	r2, #64	; 0x40
 8000df2:	d111      	bne.n	8000e18 <HAL_I2C_EV_IRQHandler+0x78>
 8000df4:	6d22      	ldr	r2, [r4, #80]	; 0x50
 8000df6:	b952      	cbnz	r2, 8000e0e <HAL_I2C_EV_IRQHandler+0x6e>
 8000df8:	6c62      	ldr	r2, [r4, #68]	; 0x44
 8000dfa:	f002 02fe 	and.w	r2, r2, #254	; 0xfe
 8000dfe:	611a      	str	r2, [r3, #16]
 8000e00:	e7ea      	b.n	8000dd8 <HAL_I2C_EV_IRQHandler+0x38>
 8000e02:	6ae2      	ldr	r2, [r4, #44]	; 0x2c
 8000e04:	f1b2 4f2a 	cmp.w	r2, #2852126720	; 0xaa000000
 8000e08:	d1f0      	bne.n	8000dec <HAL_I2C_EV_IRQHandler+0x4c>
 8000e0a:	2208      	movs	r2, #8
 8000e0c:	e7ed      	b.n	8000dea <HAL_I2C_EV_IRQHandler+0x4a>
 8000e0e:	6c62      	ldr	r2, [r4, #68]	; 0x44
 8000e10:	f042 0201 	orr.w	r2, r2, #1
 8000e14:	b2d2      	uxtb	r2, r2
 8000e16:	e7f2      	b.n	8000dfe <HAL_I2C_EV_IRQHandler+0x5e>
 8000e18:	6922      	ldr	r2, [r4, #16]
 8000e1a:	f5b2 4f80 	cmp.w	r2, #16384	; 0x4000
 8000e1e:	d11a      	bne.n	8000e56 <HAL_I2C_EV_IRQHandler+0xb6>
 8000e20:	f894 203d 	ldrb.w	r2, [r4, #61]	; 0x3d
 8000e24:	2a21      	cmp	r2, #33	; 0x21
 8000e26:	6c62      	ldr	r2, [r4, #68]	; 0x44
 8000e28:	d111      	bne.n	8000e4e <HAL_I2C_EV_IRQHandler+0xae>
 8000e2a:	f002 02fe 	and.w	r2, r2, #254	; 0xfe
 8000e2e:	611a      	str	r2, [r3, #16]
 8000e30:	6b62      	ldr	r2, [r4, #52]	; 0x34
 8000e32:	b10a      	cbz	r2, 8000e38 <HAL_I2C_EV_IRQHandler+0x98>
 8000e34:	6a92      	ldr	r2, [r2, #40]	; 0x28
 8000e36:	b92a      	cbnz	r2, 8000e44 <HAL_I2C_EV_IRQHandler+0xa4>
 8000e38:	6ba2      	ldr	r2, [r4, #56]	; 0x38
 8000e3a:	2a00      	cmp	r2, #0
 8000e3c:	d0cc      	beq.n	8000dd8 <HAL_I2C_EV_IRQHandler+0x38>
 8000e3e:	6a92      	ldr	r2, [r2, #40]	; 0x28
 8000e40:	2a00      	cmp	r2, #0
 8000e42:	d0c9      	beq.n	8000dd8 <HAL_I2C_EV_IRQHandler+0x38>
 8000e44:	685a      	ldr	r2, [r3, #4]
 8000e46:	f442 6200 	orr.w	r2, r2, #2048	; 0x800
 8000e4a:	605a      	str	r2, [r3, #4]
 8000e4c:	e7c4      	b.n	8000dd8 <HAL_I2C_EV_IRQHandler+0x38>
 8000e4e:	f042 0201 	orr.w	r2, r2, #1
 8000e52:	b2d2      	uxtb	r2, r2
 8000e54:	e7eb      	b.n	8000e2e <HAL_I2C_EV_IRQHandler+0x8e>
 8000e56:	6d22      	ldr	r2, [r4, #80]	; 0x50
 8000e58:	b932      	cbnz	r2, 8000e68 <HAL_I2C_EV_IRQHandler+0xc8>
 8000e5a:	6c62      	ldr	r2, [r4, #68]	; 0x44
 8000e5c:	11d2      	asrs	r2, r2, #7
 8000e5e:	f002 0206 	and.w	r2, r2, #6
 8000e62:	f042 02f0 	orr.w	r2, r2, #240	; 0xf0
 8000e66:	e7ca      	b.n	8000dfe <HAL_I2C_EV_IRQHandler+0x5e>
 8000e68:	6d22      	ldr	r2, [r4, #80]	; 0x50
 8000e6a:	2a01      	cmp	r2, #1
 8000e6c:	d1b4      	bne.n	8000dd8 <HAL_I2C_EV_IRQHandler+0x38>
 8000e6e:	6c62      	ldr	r2, [r4, #68]	; 0x44
 8000e70:	11d2      	asrs	r2, r2, #7
 8000e72:	f002 0206 	and.w	r2, r2, #6
 8000e76:	f042 02f1 	orr.w	r2, r2, #241	; 0xf1
 8000e7a:	e7c0      	b.n	8000dfe <HAL_I2C_EV_IRQHandler+0x5e>
 8000e7c:	0706      	lsls	r6, r0, #28
 8000e7e:	d503      	bpl.n	8000e88 <HAL_I2C_EV_IRQHandler+0xe8>
 8000e80:	0596      	lsls	r6, r2, #22
 8000e82:	d501      	bpl.n	8000e88 <HAL_I2C_EV_IRQHandler+0xe8>
 8000e84:	6c62      	ldr	r2, [r4, #68]	; 0x44
 8000e86:	e7e4      	b.n	8000e52 <HAL_I2C_EV_IRQHandler+0xb2>
 8000e88:	0786      	lsls	r6, r0, #30
 8000e8a:	f140 80e6 	bpl.w	800105a <HAL_I2C_EV_IRQHandler+0x2ba>
 8000e8e:	0596      	lsls	r6, r2, #22
 8000e90:	f140 80e3 	bpl.w	800105a <HAL_I2C_EV_IRQHandler+0x2ba>
 8000e94:	f894 103e 	ldrb.w	r1, [r4, #62]	; 0x3e
 8000e98:	6ae2      	ldr	r2, [r4, #44]	; 0x2c
 8000e9a:	6b25      	ldr	r5, [r4, #48]	; 0x30
 8000e9c:	f894 003d 	ldrb.w	r0, [r4, #61]	; 0x3d
 8000ea0:	b2c9      	uxtb	r1, r1
 8000ea2:	2822      	cmp	r0, #34	; 0x22
 8000ea4:	f040 80d1 	bne.w	800104a <HAL_I2C_EV_IRQHandler+0x2aa>
 8000ea8:	6d20      	ldr	r0, [r4, #80]	; 0x50
 8000eaa:	b940      	cbnz	r0, 8000ebe <HAL_I2C_EV_IRQHandler+0x11e>
 8000eac:	2940      	cmp	r1, #64	; 0x40
 8000eae:	d106      	bne.n	8000ebe <HAL_I2C_EV_IRQHandler+0x11e>
 8000eb0:	9000      	str	r0, [sp, #0]
 8000eb2:	695a      	ldr	r2, [r3, #20]
 8000eb4:	9200      	str	r2, [sp, #0]
 8000eb6:	699b      	ldr	r3, [r3, #24]
 8000eb8:	9300      	str	r3, [sp, #0]
 8000eba:	9b00      	ldr	r3, [sp, #0]
 8000ebc:	e78c      	b.n	8000dd8 <HAL_I2C_EV_IRQHandler+0x38>
 8000ebe:	6d21      	ldr	r1, [r4, #80]	; 0x50
 8000ec0:	b989      	cbnz	r1, 8000ee6 <HAL_I2C_EV_IRQHandler+0x146>
 8000ec2:	6920      	ldr	r0, [r4, #16]
 8000ec4:	f5b0 4f40 	cmp.w	r0, #49152	; 0xc000
 8000ec8:	d10d      	bne.n	8000ee6 <HAL_I2C_EV_IRQHandler+0x146>
 8000eca:	9101      	str	r1, [sp, #4]
 8000ecc:	695a      	ldr	r2, [r3, #20]
 8000ece:	9201      	str	r2, [sp, #4]
 8000ed0:	699a      	ldr	r2, [r3, #24]
 8000ed2:	9201      	str	r2, [sp, #4]
 8000ed4:	9a01      	ldr	r2, [sp, #4]
 8000ed6:	681a      	ldr	r2, [r3, #0]
 8000ed8:	f442 7280 	orr.w	r2, r2, #256	; 0x100
 8000edc:	601a      	str	r2, [r3, #0]
 8000ede:	6d23      	ldr	r3, [r4, #80]	; 0x50
 8000ee0:	3301      	adds	r3, #1
 8000ee2:	6523      	str	r3, [r4, #80]	; 0x50
 8000ee4:	e778      	b.n	8000dd8 <HAL_I2C_EV_IRQHandler+0x38>
 8000ee6:	8d61      	ldrh	r1, [r4, #42]	; 0x2a
 8000ee8:	b289      	uxth	r1, r1
 8000eea:	b951      	cbnz	r1, 8000f02 <HAL_I2C_EV_IRQHandler+0x162>
 8000eec:	9102      	str	r1, [sp, #8]
 8000eee:	695a      	ldr	r2, [r3, #20]
 8000ef0:	9202      	str	r2, [sp, #8]
 8000ef2:	699a      	ldr	r2, [r3, #24]
 8000ef4:	9202      	str	r2, [sp, #8]
 8000ef6:	9a02      	ldr	r2, [sp, #8]
 8000ef8:	681a      	ldr	r2, [r3, #0]
 8000efa:	f442 7200 	orr.w	r2, r2, #512	; 0x200
 8000efe:	601a      	str	r2, [r3, #0]
 8000f00:	e019      	b.n	8000f36 <HAL_I2C_EV_IRQHandler+0x196>
 8000f02:	8d61      	ldrh	r1, [r4, #42]	; 0x2a
 8000f04:	b289      	uxth	r1, r1
 8000f06:	2901      	cmp	r1, #1
 8000f08:	d149      	bne.n	8000f9e <HAL_I2C_EV_IRQHandler+0x1fe>
 8000f0a:	f512 3f80 	cmn.w	r2, #65536	; 0x10000
 8000f0e:	d11b      	bne.n	8000f48 <HAL_I2C_EV_IRQHandler+0x1a8>
 8000f10:	681a      	ldr	r2, [r3, #0]
 8000f12:	f422 6280 	bic.w	r2, r2, #1024	; 0x400
 8000f16:	601a      	str	r2, [r3, #0]
 8000f18:	685a      	ldr	r2, [r3, #4]
 8000f1a:	f412 6200 	ands.w	r2, r2, #2048	; 0x800
 8000f1e:	d00c      	beq.n	8000f3a <HAL_I2C_EV_IRQHandler+0x19a>
 8000f20:	681a      	ldr	r2, [r3, #0]
 8000f22:	f422 6280 	bic.w	r2, r2, #1024	; 0x400
 8000f26:	601a      	str	r2, [r3, #0]
 8000f28:	2200      	movs	r2, #0
 8000f2a:	9203      	str	r2, [sp, #12]
 8000f2c:	695a      	ldr	r2, [r3, #20]
 8000f2e:	9203      	str	r2, [sp, #12]
 8000f30:	699b      	ldr	r3, [r3, #24]
 8000f32:	9303      	str	r3, [sp, #12]
 8000f34:	9b03      	ldr	r3, [sp, #12]
 8000f36:	2300      	movs	r3, #0
 8000f38:	e7d3      	b.n	8000ee2 <HAL_I2C_EV_IRQHandler+0x142>
 8000f3a:	9204      	str	r2, [sp, #16]
 8000f3c:	695a      	ldr	r2, [r3, #20]
 8000f3e:	9204      	str	r2, [sp, #16]
 8000f40:	699a      	ldr	r2, [r3, #24]
 8000f42:	9204      	str	r2, [sp, #16]
 8000f44:	9a04      	ldr	r2, [sp, #16]
 8000f46:	e7d7      	b.n	8000ef8 <HAL_I2C_EV_IRQHandler+0x158>
 8000f48:	2a08      	cmp	r2, #8
 8000f4a:	d01c      	beq.n	8000f86 <HAL_I2C_EV_IRQHandler+0x1e6>
 8000f4c:	2a20      	cmp	r2, #32
 8000f4e:	d01a      	beq.n	8000f86 <HAL_I2C_EV_IRQHandler+0x1e6>
 8000f50:	2d12      	cmp	r5, #18
 8000f52:	d10d      	bne.n	8000f70 <HAL_I2C_EV_IRQHandler+0x1d0>
 8000f54:	2a01      	cmp	r2, #1
 8000f56:	d116      	bne.n	8000f86 <HAL_I2C_EV_IRQHandler+0x1e6>
 8000f58:	681a      	ldr	r2, [r3, #0]
 8000f5a:	f422 6280 	bic.w	r2, r2, #1024	; 0x400
 8000f5e:	601a      	str	r2, [r3, #0]
 8000f60:	2200      	movs	r2, #0
 8000f62:	9205      	str	r2, [sp, #20]
 8000f64:	695a      	ldr	r2, [r3, #20]
 8000f66:	9205      	str	r2, [sp, #20]
 8000f68:	699b      	ldr	r3, [r3, #24]
 8000f6a:	9305      	str	r3, [sp, #20]
 8000f6c:	9b05      	ldr	r3, [sp, #20]
 8000f6e:	e7e2      	b.n	8000f36 <HAL_I2C_EV_IRQHandler+0x196>
 8000f70:	2a10      	cmp	r2, #16
 8000f72:	d8f1      	bhi.n	8000f58 <HAL_I2C_EV_IRQHandler+0x1b8>
 8000f74:	4996      	ldr	r1, [pc, #600]	; (80011d0 <HAL_I2C_EV_IRQHandler+0x430>)
 8000f76:	fa21 f202 	lsr.w	r2, r1, r2
 8000f7a:	07d6      	lsls	r6, r2, #31
 8000f7c:	d5ec      	bpl.n	8000f58 <HAL_I2C_EV_IRQHandler+0x1b8>
 8000f7e:	681a      	ldr	r2, [r3, #0]
 8000f80:	f442 6280 	orr.w	r2, r2, #1024	; 0x400
 8000f84:	e7eb      	b.n	8000f5e <HAL_I2C_EV_IRQHandler+0x1be>
 8000f86:	681a      	ldr	r2, [r3, #0]
 8000f88:	f422 6280 	bic.w	r2, r2, #1024	; 0x400
 8000f8c:	601a      	str	r2, [r3, #0]
 8000f8e:	2200      	movs	r2, #0
 8000f90:	9206      	str	r2, [sp, #24]
 8000f92:	695a      	ldr	r2, [r3, #20]
 8000f94:	9206      	str	r2, [sp, #24]
 8000f96:	699a      	ldr	r2, [r3, #24]
 8000f98:	9206      	str	r2, [sp, #24]
 8000f9a:	9a06      	ldr	r2, [sp, #24]
 8000f9c:	e7ac      	b.n	8000ef8 <HAL_I2C_EV_IRQHandler+0x158>
 8000f9e:	8d61      	ldrh	r1, [r4, #42]	; 0x2a
 8000fa0:	b289      	uxth	r1, r1
 8000fa2:	2902      	cmp	r1, #2
 8000fa4:	d133      	bne.n	800100e <HAL_I2C_EV_IRQHandler+0x26e>
 8000fa6:	2a10      	cmp	r2, #16
 8000fa8:	d805      	bhi.n	8000fb6 <HAL_I2C_EV_IRQHandler+0x216>
 8000faa:	4989      	ldr	r1, [pc, #548]	; (80011d0 <HAL_I2C_EV_IRQHandler+0x430>)
 8000fac:	40d1      	lsrs	r1, r2
 8000fae:	43c9      	mvns	r1, r1
 8000fb0:	f011 0101 	ands.w	r1, r1, #1
 8000fb4:	d020      	beq.n	8000ff8 <HAL_I2C_EV_IRQHandler+0x258>
 8000fb6:	6819      	ldr	r1, [r3, #0]
 8000fb8:	f441 6100 	orr.w	r1, r1, #2048	; 0x800
 8000fbc:	6019      	str	r1, [r3, #0]
 8000fbe:	2100      	movs	r1, #0
 8000fc0:	9107      	str	r1, [sp, #28]
 8000fc2:	6959      	ldr	r1, [r3, #20]
 8000fc4:	9107      	str	r1, [sp, #28]
 8000fc6:	6999      	ldr	r1, [r3, #24]
 8000fc8:	9107      	str	r1, [sp, #28]
 8000fca:	9907      	ldr	r1, [sp, #28]
 8000fcc:	6819      	ldr	r1, [r3, #0]
 8000fce:	f421 6180 	bic.w	r1, r1, #1024	; 0x400
 8000fd2:	6019      	str	r1, [r3, #0]
 8000fd4:	6859      	ldr	r1, [r3, #4]
 8000fd6:	050d      	lsls	r5, r1, #20
 8000fd8:	d5ad      	bpl.n	8000f36 <HAL_I2C_EV_IRQHandler+0x196>
 8000fda:	f512 3f80 	cmn.w	r2, #65536	; 0x10000
 8000fde:	d006      	beq.n	8000fee <HAL_I2C_EV_IRQHandler+0x24e>
 8000fe0:	1e51      	subs	r1, r2, #1
 8000fe2:	291f      	cmp	r1, #31
 8000fe4:	d8a7      	bhi.n	8000f36 <HAL_I2C_EV_IRQHandler+0x196>
 8000fe6:	4a7b      	ldr	r2, [pc, #492]	; (80011d4 <HAL_I2C_EV_IRQHandler+0x434>)
 8000fe8:	40ca      	lsrs	r2, r1
 8000fea:	07d0      	lsls	r0, r2, #31
 8000fec:	d5a3      	bpl.n	8000f36 <HAL_I2C_EV_IRQHandler+0x196>
 8000fee:	685a      	ldr	r2, [r3, #4]
 8000ff0:	f442 5280 	orr.w	r2, r2, #4096	; 0x1000
 8000ff4:	605a      	str	r2, [r3, #4]
 8000ff6:	e79e      	b.n	8000f36 <HAL_I2C_EV_IRQHandler+0x196>
 8000ff8:	6818      	ldr	r0, [r3, #0]
 8000ffa:	f440 6080 	orr.w	r0, r0, #1024	; 0x400
 8000ffe:	6018      	str	r0, [r3, #0]
 8001000:	9108      	str	r1, [sp, #32]
 8001002:	6959      	ldr	r1, [r3, #20]
 8001004:	9108      	str	r1, [sp, #32]
 8001006:	6999      	ldr	r1, [r3, #24]
 8001008:	9108      	str	r1, [sp, #32]
 800100a:	9908      	ldr	r1, [sp, #32]
 800100c:	e7e2      	b.n	8000fd4 <HAL_I2C_EV_IRQHandler+0x234>
 800100e:	6819      	ldr	r1, [r3, #0]
 8001010:	f441 6180 	orr.w	r1, r1, #1024	; 0x400
 8001014:	6019      	str	r1, [r3, #0]
 8001016:	6859      	ldr	r1, [r3, #4]
 8001018:	0509      	lsls	r1, r1, #20
 800101a:	d50e      	bpl.n	800103a <HAL_I2C_EV_IRQHandler+0x29a>
 800101c:	f512 3f80 	cmn.w	r2, #65536	; 0x10000
 8001020:	d007      	beq.n	8001032 <HAL_I2C_EV_IRQHandler+0x292>
 8001022:	3a01      	subs	r2, #1
 8001024:	2a1f      	cmp	r2, #31
 8001026:	d808      	bhi.n	800103a <HAL_I2C_EV_IRQHandler+0x29a>
 8001028:	496a      	ldr	r1, [pc, #424]	; (80011d4 <HAL_I2C_EV_IRQHandler+0x434>)
 800102a:	fa21 f202 	lsr.w	r2, r1, r2
 800102e:	07d2      	lsls	r2, r2, #31
 8001030:	d503      	bpl.n	800103a <HAL_I2C_EV_IRQHandler+0x29a>
 8001032:	685a      	ldr	r2, [r3, #4]
 8001034:	f442 5280 	orr.w	r2, r2, #4096	; 0x1000
 8001038:	605a      	str	r2, [r3, #4]
 800103a:	2200      	movs	r2, #0
 800103c:	9209      	str	r2, [sp, #36]	; 0x24
 800103e:	695a      	ldr	r2, [r3, #20]
 8001040:	9209      	str	r2, [sp, #36]	; 0x24
 8001042:	699b      	ldr	r3, [r3, #24]
 8001044:	9309      	str	r3, [sp, #36]	; 0x24
 8001046:	9b09      	ldr	r3, [sp, #36]	; 0x24
 8001048:	e775      	b.n	8000f36 <HAL_I2C_EV_IRQHandler+0x196>
 800104a:	2200      	movs	r2, #0
 800104c:	920a      	str	r2, [sp, #40]	; 0x28
 800104e:	695a      	ldr	r2, [r3, #20]
 8001050:	920a      	str	r2, [sp, #40]	; 0x28
 8001052:	699b      	ldr	r3, [r3, #24]
 8001054:	930a      	str	r3, [sp, #40]	; 0x28
 8001056:	9b0a      	ldr	r3, [sp, #40]	; 0x28
 8001058:	e6be      	b.n	8000dd8 <HAL_I2C_EV_IRQHandler+0x38>
 800105a:	077f      	lsls	r7, r7, #29
 800105c:	f140 808d 	bpl.w	800117a <HAL_I2C_EV_IRQHandler+0x3da>
 8001060:	685e      	ldr	r6, [r3, #4]
 8001062:	0536      	lsls	r6, r6, #20
 8001064:	f53f aeb8 	bmi.w	8000dd8 <HAL_I2C_EV_IRQHandler+0x38>
 8001068:	0607      	lsls	r7, r0, #24
 800106a:	f3c0 0680 	ubfx	r6, r0, #2, #1
 800106e:	d53e      	bpl.n	80010ee <HAL_I2C_EV_IRQHandler+0x34e>
 8001070:	0550      	lsls	r0, r2, #21
 8001072:	d53c      	bpl.n	80010ee <HAL_I2C_EV_IRQHandler+0x34e>
 8001074:	2e00      	cmp	r6, #0
 8001076:	d13d      	bne.n	80010f4 <HAL_I2C_EV_IRQHandler+0x354>
 8001078:	f894 203d 	ldrb.w	r2, [r4, #61]	; 0x3d
 800107c:	8d25      	ldrh	r5, [r4, #40]	; 0x28
 800107e:	f894 103e 	ldrb.w	r1, [r4, #62]	; 0x3e
 8001082:	b2d2      	uxtb	r2, r2
 8001084:	6ae0      	ldr	r0, [r4, #44]	; 0x2c
 8001086:	b2c9      	uxtb	r1, r1
 8001088:	b9c5      	cbnz	r5, 80010bc <HAL_I2C_EV_IRQHandler+0x31c>
 800108a:	2a21      	cmp	r2, #33	; 0x21
 800108c:	d118      	bne.n	80010c0 <HAL_I2C_EV_IRQHandler+0x320>
 800108e:	2808      	cmp	r0, #8
 8001090:	d058      	beq.n	8001144 <HAL_I2C_EV_IRQHandler+0x3a4>
 8001092:	2820      	cmp	r0, #32
 8001094:	d056      	beq.n	8001144 <HAL_I2C_EV_IRQHandler+0x3a4>
 8001096:	f510 3f80 	cmn.w	r0, #65536	; 0x10000
 800109a:	d053      	beq.n	8001144 <HAL_I2C_EV_IRQHandler+0x3a4>
 800109c:	685a      	ldr	r2, [r3, #4]
 800109e:	f422 62e0 	bic.w	r2, r2, #1792	; 0x700
 80010a2:	605a      	str	r2, [r3, #4]
 80010a4:	2311      	movs	r3, #17
 80010a6:	6323      	str	r3, [r4, #48]	; 0x30
 80010a8:	2300      	movs	r3, #0
 80010aa:	f884 303e 	strb.w	r3, [r4, #62]	; 0x3e
 80010ae:	2320      	movs	r3, #32
 80010b0:	4620      	mov	r0, r4
 80010b2:	f884 303d 	strb.w	r3, [r4, #61]	; 0x3d
 80010b6:	f7ff fd09 	bl	8000acc <HAL_I2C_MasterTxCpltCallback>
 80010ba:	e68d      	b.n	8000dd8 <HAL_I2C_EV_IRQHandler+0x38>
 80010bc:	2a21      	cmp	r2, #33	; 0x21
 80010be:	d005      	beq.n	80010cc <HAL_I2C_EV_IRQHandler+0x32c>
 80010c0:	2940      	cmp	r1, #64	; 0x40
 80010c2:	f47f ae89 	bne.w	8000dd8 <HAL_I2C_EV_IRQHandler+0x38>
 80010c6:	2a22      	cmp	r2, #34	; 0x22
 80010c8:	f47f ae86 	bne.w	8000dd8 <HAL_I2C_EV_IRQHandler+0x38>
 80010cc:	8d62      	ldrh	r2, [r4, #42]	; 0x2a
 80010ce:	b292      	uxth	r2, r2
 80010d0:	b91a      	cbnz	r2, 80010da <HAL_I2C_EV_IRQHandler+0x33a>
 80010d2:	685a      	ldr	r2, [r3, #4]
 80010d4:	f422 6280 	bic.w	r2, r2, #1024	; 0x400
 80010d8:	e6b7      	b.n	8000e4a <HAL_I2C_EV_IRQHandler+0xaa>
 80010da:	f894 203e 	ldrb.w	r2, [r4, #62]	; 0x3e
 80010de:	2a40      	cmp	r2, #64	; 0x40
 80010e0:	d116      	bne.n	8001110 <HAL_I2C_EV_IRQHandler+0x370>
 80010e2:	4620      	mov	r0, r4
 80010e4:	b00f      	add	sp, #60	; 0x3c
 80010e6:	e8bd 40f0 	ldmia.w	sp!, {r4, r5, r6, r7, lr}
 80010ea:	f7ff bcf6 	b.w	8000ada <I2C_MemoryTransmit_TXE_BTF>
 80010ee:	2e00      	cmp	r6, #0
 80010f0:	f43f ae72 	beq.w	8000dd8 <HAL_I2C_EV_IRQHandler+0x38>
 80010f4:	0597      	lsls	r7, r2, #22
 80010f6:	f57f ae6f 	bpl.w	8000dd8 <HAL_I2C_EV_IRQHandler+0x38>
 80010fa:	2921      	cmp	r1, #33	; 0x21
 80010fc:	d139      	bne.n	8001172 <HAL_I2C_EV_IRQHandler+0x3d2>
 80010fe:	6ae1      	ldr	r1, [r4, #44]	; 0x2c
 8001100:	f894 203d 	ldrb.w	r2, [r4, #61]	; 0x3d
 8001104:	2a21      	cmp	r2, #33	; 0x21
 8001106:	f47f ae67 	bne.w	8000dd8 <HAL_I2C_EV_IRQHandler+0x38>
 800110a:	8d62      	ldrh	r2, [r4, #42]	; 0x2a
 800110c:	b292      	uxth	r2, r2
 800110e:	b14a      	cbz	r2, 8001124 <HAL_I2C_EV_IRQHandler+0x384>
 8001110:	6a62      	ldr	r2, [r4, #36]	; 0x24
 8001112:	f812 1b01 	ldrb.w	r1, [r2], #1
 8001116:	6119      	str	r1, [r3, #16]
 8001118:	6262      	str	r2, [r4, #36]	; 0x24
 800111a:	8d63      	ldrh	r3, [r4, #42]	; 0x2a
 800111c:	3b01      	subs	r3, #1
 800111e:	b29b      	uxth	r3, r3
 8001120:	8563      	strh	r3, [r4, #42]	; 0x2a
 8001122:	e659      	b.n	8000dd8 <HAL_I2C_EV_IRQHandler+0x38>
 8001124:	2908      	cmp	r1, #8
 8001126:	d00d      	beq.n	8001144 <HAL_I2C_EV_IRQHandler+0x3a4>
 8001128:	2920      	cmp	r1, #32
 800112a:	d00b      	beq.n	8001144 <HAL_I2C_EV_IRQHandler+0x3a4>
 800112c:	f511 3f80 	cmn.w	r1, #65536	; 0x10000
 8001130:	d008      	beq.n	8001144 <HAL_I2C_EV_IRQHandler+0x3a4>
 8001132:	6859      	ldr	r1, [r3, #4]
 8001134:	f421 61e0 	bic.w	r1, r1, #1792	; 0x700
 8001138:	6059      	str	r1, [r3, #4]
 800113a:	2311      	movs	r3, #17
 800113c:	6323      	str	r3, [r4, #48]	; 0x30
 800113e:	f884 203e 	strb.w	r2, [r4, #62]	; 0x3e
 8001142:	e7b4      	b.n	80010ae <HAL_I2C_EV_IRQHandler+0x30e>
 8001144:	685a      	ldr	r2, [r3, #4]
 8001146:	4620      	mov	r0, r4
 8001148:	f422 62e0 	bic.w	r2, r2, #1792	; 0x700
 800114c:	605a      	str	r2, [r3, #4]
 800114e:	681a      	ldr	r2, [r3, #0]
 8001150:	f442 7200 	orr.w	r2, r2, #512	; 0x200
 8001154:	601a      	str	r2, [r3, #0]
 8001156:	2300      	movs	r3, #0
 8001158:	2220      	movs	r2, #32
 800115a:	6323      	str	r3, [r4, #48]	; 0x30
 800115c:	f884 203d 	strb.w	r2, [r4, #61]	; 0x3d
 8001160:	f894 203e 	ldrb.w	r2, [r4, #62]	; 0x3e
 8001164:	f884 303e 	strb.w	r3, [r4, #62]	; 0x3e
 8001168:	2a40      	cmp	r2, #64	; 0x40
 800116a:	d1a4      	bne.n	80010b6 <HAL_I2C_EV_IRQHandler+0x316>
 800116c:	f7ff fcb4 	bl	8000ad8 <HAL_I2C_MemTxCpltCallback>
 8001170:	e632      	b.n	8000dd8 <HAL_I2C_EV_IRQHandler+0x38>
 8001172:	2d40      	cmp	r5, #64	; 0x40
 8001174:	f47f ae30 	bne.w	8000dd8 <HAL_I2C_EV_IRQHandler+0x38>
 8001178:	e7b3      	b.n	80010e2 <HAL_I2C_EV_IRQHandler+0x342>
 800117a:	6859      	ldr	r1, [r3, #4]
 800117c:	050e      	lsls	r6, r1, #20
 800117e:	f53f ae2b 	bmi.w	8000dd8 <HAL_I2C_EV_IRQHandler+0x38>
 8001182:	0645      	lsls	r5, r0, #25
 8001184:	f3c0 0180 	ubfx	r1, r0, #2, #1
 8001188:	d57b      	bpl.n	8001282 <HAL_I2C_EV_IRQHandler+0x4e2>
 800118a:	0550      	lsls	r0, r2, #21
 800118c:	d579      	bpl.n	8001282 <HAL_I2C_EV_IRQHandler+0x4e2>
 800118e:	2900      	cmp	r1, #0
 8001190:	d17a      	bne.n	8001288 <HAL_I2C_EV_IRQHandler+0x4e8>
 8001192:	f894 203d 	ldrb.w	r2, [r4, #61]	; 0x3d
 8001196:	2a22      	cmp	r2, #34	; 0x22
 8001198:	f47f ae1e 	bne.w	8000dd8 <HAL_I2C_EV_IRQHandler+0x38>
 800119c:	8d62      	ldrh	r2, [r4, #42]	; 0x2a
 800119e:	b292      	uxth	r2, r2
 80011a0:	2a03      	cmp	r2, #3
 80011a2:	d919      	bls.n	80011d8 <HAL_I2C_EV_IRQHandler+0x438>
 80011a4:	691a      	ldr	r2, [r3, #16]
 80011a6:	6a63      	ldr	r3, [r4, #36]	; 0x24
 80011a8:	701a      	strb	r2, [r3, #0]
 80011aa:	6a63      	ldr	r3, [r4, #36]	; 0x24
 80011ac:	3301      	adds	r3, #1
 80011ae:	6263      	str	r3, [r4, #36]	; 0x24
 80011b0:	8d63      	ldrh	r3, [r4, #42]	; 0x2a
 80011b2:	3b01      	subs	r3, #1
 80011b4:	b29b      	uxth	r3, r3
 80011b6:	8563      	strh	r3, [r4, #42]	; 0x2a
 80011b8:	8d63      	ldrh	r3, [r4, #42]	; 0x2a
 80011ba:	b29b      	uxth	r3, r3
 80011bc:	2b03      	cmp	r3, #3
 80011be:	f47f ae0b 	bne.w	8000dd8 <HAL_I2C_EV_IRQHandler+0x38>
 80011c2:	6822      	ldr	r2, [r4, #0]
 80011c4:	6853      	ldr	r3, [r2, #4]
 80011c6:	f423 6380 	bic.w	r3, r3, #1024	; 0x400
 80011ca:	6053      	str	r3, [r2, #4]
 80011cc:	e604      	b.n	8000dd8 <HAL_I2C_EV_IRQHandler+0x38>
 80011ce:	bf00      	nop
 80011d0:	00010014 	.word	0x00010014
 80011d4:	80008081 	.word	0x80008081
 80011d8:	6ae0      	ldr	r0, [r4, #44]	; 0x2c
 80011da:	2802      	cmp	r0, #2
 80011dc:	f43f af79 	beq.w	80010d2 <HAL_I2C_EV_IRQHandler+0x332>
 80011e0:	2a01      	cmp	r2, #1
 80011e2:	f63f af76 	bhi.w	80010d2 <HAL_I2C_EV_IRQHandler+0x332>
 80011e6:	910b      	str	r1, [sp, #44]	; 0x2c
 80011e8:	f246 11a8 	movw	r1, #25000	; 0x61a8
 80011ec:	4a72      	ldr	r2, [pc, #456]	; (80013b8 <HAL_I2C_EV_IRQHandler+0x618>)
 80011ee:	6812      	ldr	r2, [r2, #0]
 80011f0:	fbb2 f2f1 	udiv	r2, r2, r1
 80011f4:	eb02 0282 	add.w	r2, r2, r2, lsl #2
 80011f8:	920b      	str	r2, [sp, #44]	; 0x2c
 80011fa:	9a0b      	ldr	r2, [sp, #44]	; 0x2c
 80011fc:	3a01      	subs	r2, #1
 80011fe:	920b      	str	r2, [sp, #44]	; 0x2c
 8001200:	990b      	ldr	r1, [sp, #44]	; 0x2c
 8001202:	b9d1      	cbnz	r1, 800123a <HAL_I2C_EV_IRQHandler+0x49a>
 8001204:	6c22      	ldr	r2, [r4, #64]	; 0x40
 8001206:	4620      	mov	r0, r4
 8001208:	f042 0220 	orr.w	r2, r2, #32
 800120c:	6422      	str	r2, [r4, #64]	; 0x40
 800120e:	685a      	ldr	r2, [r3, #4]
 8001210:	f422 62e0 	bic.w	r2, r2, #1792	; 0x700
 8001214:	605a      	str	r2, [r3, #4]
 8001216:	691a      	ldr	r2, [r3, #16]
 8001218:	6a63      	ldr	r3, [r4, #36]	; 0x24
 800121a:	701a      	strb	r2, [r3, #0]
 800121c:	6a63      	ldr	r3, [r4, #36]	; 0x24
 800121e:	3301      	adds	r3, #1
 8001220:	6263      	str	r3, [r4, #36]	; 0x24
 8001222:	8d63      	ldrh	r3, [r4, #42]	; 0x2a
 8001224:	3b01      	subs	r3, #1
 8001226:	b29b      	uxth	r3, r3
 8001228:	8563      	strh	r3, [r4, #42]	; 0x2a
 800122a:	2320      	movs	r3, #32
 800122c:	f884 303d 	strb.w	r3, [r4, #61]	; 0x3d
 8001230:	f884 103e 	strb.w	r1, [r4, #62]	; 0x3e
 8001234:	f7ff fcaa 	bl	8000b8c <HAL_I2C_ErrorCallback>
 8001238:	e5ce      	b.n	8000dd8 <HAL_I2C_EV_IRQHandler+0x38>
 800123a:	681a      	ldr	r2, [r3, #0]
 800123c:	f412 7200 	ands.w	r2, r2, #512	; 0x200
 8001240:	d1db      	bne.n	80011fa <HAL_I2C_EV_IRQHandler+0x45a>
 8001242:	6819      	ldr	r1, [r3, #0]
 8001244:	f421 6180 	bic.w	r1, r1, #1024	; 0x400
 8001248:	6019      	str	r1, [r3, #0]
 800124a:	6859      	ldr	r1, [r3, #4]
 800124c:	f421 61e0 	bic.w	r1, r1, #1792	; 0x700
 8001250:	6059      	str	r1, [r3, #4]
 8001252:	6919      	ldr	r1, [r3, #16]
 8001254:	6a63      	ldr	r3, [r4, #36]	; 0x24
 8001256:	7019      	strb	r1, [r3, #0]
 8001258:	6a63      	ldr	r3, [r4, #36]	; 0x24
 800125a:	3301      	adds	r3, #1
 800125c:	6263      	str	r3, [r4, #36]	; 0x24
 800125e:	8d63      	ldrh	r3, [r4, #42]	; 0x2a
 8001260:	3b01      	subs	r3, #1
 8001262:	b29b      	uxth	r3, r3
 8001264:	8563      	strh	r3, [r4, #42]	; 0x2a
 8001266:	2320      	movs	r3, #32
 8001268:	f884 303d 	strb.w	r3, [r4, #61]	; 0x3d
 800126c:	f894 303e 	ldrb.w	r3, [r4, #62]	; 0x3e
 8001270:	f884 203e 	strb.w	r2, [r4, #62]	; 0x3e
 8001274:	2b40      	cmp	r3, #64	; 0x40
 8001276:	d168      	bne.n	800134a <HAL_I2C_EV_IRQHandler+0x5aa>
 8001278:	6322      	str	r2, [r4, #48]	; 0x30
 800127a:	4620      	mov	r0, r4
 800127c:	f7ff fc85 	bl	8000b8a <HAL_I2C_MemRxCpltCallback>
 8001280:	e5aa      	b.n	8000dd8 <HAL_I2C_EV_IRQHandler+0x38>
 8001282:	2900      	cmp	r1, #0
 8001284:	f43f ada8 	beq.w	8000dd8 <HAL_I2C_EV_IRQHandler+0x38>
 8001288:	0592      	lsls	r2, r2, #22
 800128a:	f57f ada5 	bpl.w	8000dd8 <HAL_I2C_EV_IRQHandler+0x38>
 800128e:	6ae2      	ldr	r2, [r4, #44]	; 0x2c
 8001290:	8d60      	ldrh	r0, [r4, #42]	; 0x2a
 8001292:	6a61      	ldr	r1, [r4, #36]	; 0x24
 8001294:	b280      	uxth	r0, r0
 8001296:	2804      	cmp	r0, #4
 8001298:	d109      	bne.n	80012ae <HAL_I2C_EV_IRQHandler+0x50e>
 800129a:	685a      	ldr	r2, [r3, #4]
 800129c:	f422 6280 	bic.w	r2, r2, #1024	; 0x400
 80012a0:	605a      	str	r2, [r3, #4]
 80012a2:	691b      	ldr	r3, [r3, #16]
 80012a4:	700b      	strb	r3, [r1, #0]
 80012a6:	6a63      	ldr	r3, [r4, #36]	; 0x24
 80012a8:	3301      	adds	r3, #1
 80012aa:	6263      	str	r3, [r4, #36]	; 0x24
 80012ac:	e735      	b.n	800111a <HAL_I2C_EV_IRQHandler+0x37a>
 80012ae:	8d60      	ldrh	r0, [r4, #42]	; 0x2a
 80012b0:	b280      	uxth	r0, r0
 80012b2:	2803      	cmp	r0, #3
 80012b4:	d10c      	bne.n	80012d0 <HAL_I2C_EV_IRQHandler+0x530>
 80012b6:	6858      	ldr	r0, [r3, #4]
 80012b8:	2a04      	cmp	r2, #4
 80012ba:	f420 6080 	bic.w	r0, r0, #1024	; 0x400
 80012be:	6058      	str	r0, [r3, #4]
 80012c0:	d0ef      	beq.n	80012a2 <HAL_I2C_EV_IRQHandler+0x502>
 80012c2:	2a02      	cmp	r2, #2
 80012c4:	d0ed      	beq.n	80012a2 <HAL_I2C_EV_IRQHandler+0x502>
 80012c6:	681a      	ldr	r2, [r3, #0]
 80012c8:	f422 6280 	bic.w	r2, r2, #1024	; 0x400
 80012cc:	601a      	str	r2, [r3, #0]
 80012ce:	e7e8      	b.n	80012a2 <HAL_I2C_EV_IRQHandler+0x502>
 80012d0:	8d60      	ldrh	r0, [r4, #42]	; 0x2a
 80012d2:	b280      	uxth	r0, r0
 80012d4:	2802      	cmp	r0, #2
 80012d6:	d1e4      	bne.n	80012a2 <HAL_I2C_EV_IRQHandler+0x502>
 80012d8:	2a01      	cmp	r2, #1
 80012da:	d001      	beq.n	80012e0 <HAL_I2C_EV_IRQHandler+0x540>
 80012dc:	2a10      	cmp	r2, #16
 80012de:	d128      	bne.n	8001332 <HAL_I2C_EV_IRQHandler+0x592>
 80012e0:	681a      	ldr	r2, [r3, #0]
 80012e2:	f422 6280 	bic.w	r2, r2, #1024	; 0x400
 80012e6:	601a      	str	r2, [r3, #0]
 80012e8:	691b      	ldr	r3, [r3, #16]
 80012ea:	700b      	strb	r3, [r1, #0]
 80012ec:	6a62      	ldr	r2, [r4, #36]	; 0x24
 80012ee:	1c53      	adds	r3, r2, #1
 80012f0:	6263      	str	r3, [r4, #36]	; 0x24
 80012f2:	8d63      	ldrh	r3, [r4, #42]	; 0x2a
 80012f4:	3b01      	subs	r3, #1
 80012f6:	b29b      	uxth	r3, r3
 80012f8:	8563      	strh	r3, [r4, #42]	; 0x2a
 80012fa:	6823      	ldr	r3, [r4, #0]
 80012fc:	691b      	ldr	r3, [r3, #16]
 80012fe:	7053      	strb	r3, [r2, #1]
 8001300:	6a63      	ldr	r3, [r4, #36]	; 0x24
 8001302:	6822      	ldr	r2, [r4, #0]
 8001304:	3301      	adds	r3, #1
 8001306:	6263      	str	r3, [r4, #36]	; 0x24
 8001308:	8d63      	ldrh	r3, [r4, #42]	; 0x2a
 800130a:	3b01      	subs	r3, #1
 800130c:	b29b      	uxth	r3, r3
 800130e:	8563      	strh	r3, [r4, #42]	; 0x2a
 8001310:	6853      	ldr	r3, [r2, #4]
 8001312:	f423 7340 	bic.w	r3, r3, #768	; 0x300
 8001316:	6053      	str	r3, [r2, #4]
 8001318:	2320      	movs	r3, #32
 800131a:	f884 303d 	strb.w	r3, [r4, #61]	; 0x3d
 800131e:	f894 303e 	ldrb.w	r3, [r4, #62]	; 0x3e
 8001322:	2b40      	cmp	r3, #64	; 0x40
 8001324:	f04f 0300 	mov.w	r3, #0
 8001328:	f884 303e 	strb.w	r3, [r4, #62]	; 0x3e
 800132c:	d10d      	bne.n	800134a <HAL_I2C_EV_IRQHandler+0x5aa>
 800132e:	6323      	str	r3, [r4, #48]	; 0x30
 8001330:	e7a3      	b.n	800127a <HAL_I2C_EV_IRQHandler+0x4da>
 8001332:	2a04      	cmp	r2, #4
 8001334:	d001      	beq.n	800133a <HAL_I2C_EV_IRQHandler+0x59a>
 8001336:	2a02      	cmp	r2, #2
 8001338:	d103      	bne.n	8001342 <HAL_I2C_EV_IRQHandler+0x5a2>
 800133a:	681a      	ldr	r2, [r3, #0]
 800133c:	f442 6280 	orr.w	r2, r2, #1024	; 0x400
 8001340:	e7d1      	b.n	80012e6 <HAL_I2C_EV_IRQHandler+0x546>
 8001342:	681a      	ldr	r2, [r3, #0]
 8001344:	f442 7200 	orr.w	r2, r2, #512	; 0x200
 8001348:	e7cd      	b.n	80012e6 <HAL_I2C_EV_IRQHandler+0x546>
 800134a:	2312      	movs	r3, #18
 800134c:	4620      	mov	r0, r4
 800134e:	6323      	str	r3, [r4, #48]	; 0x30
 8001350:	f7ff fbbd 	bl	8000ace <HAL_I2C_MasterRxCpltCallback>
 8001354:	e540      	b.n	8000dd8 <HAL_I2C_EV_IRQHandler+0x38>
 8001356:	6c20      	ldr	r0, [r4, #64]	; 0x40
 8001358:	b308      	cbz	r0, 800139e <HAL_I2C_EV_IRQHandler+0x5fe>
 800135a:	2500      	movs	r5, #0
 800135c:	6958      	ldr	r0, [r3, #20]
 800135e:	0787      	lsls	r7, r0, #30
 8001360:	d52c      	bpl.n	80013bc <HAL_I2C_EV_IRQHandler+0x61c>
 8001362:	0596      	lsls	r6, r2, #22
 8001364:	d52a      	bpl.n	80013bc <HAL_I2C_EV_IRQHandler+0x61c>
 8001366:	6c22      	ldr	r2, [r4, #64]	; 0x40
 8001368:	b102      	cbz	r2, 800136c <HAL_I2C_EV_IRQHandler+0x5cc>
 800136a:	699d      	ldr	r5, [r3, #24]
 800136c:	f894 203d 	ldrb.w	r2, [r4, #61]	; 0x3d
 8001370:	f002 0228 	and.w	r2, r2, #40	; 0x28
 8001374:	2a28      	cmp	r2, #40	; 0x28
 8001376:	d115      	bne.n	80013a4 <HAL_I2C_EV_IRQHandler+0x604>
 8001378:	685a      	ldr	r2, [r3, #4]
 800137a:	ea6f 0195 	mvn.w	r1, r5, lsr #2
 800137e:	f422 6280 	bic.w	r2, r2, #1024	; 0x400
 8001382:	605a      	str	r2, [r3, #4]
 8001384:	2300      	movs	r3, #0
 8001386:	062f      	lsls	r7, r5, #24
 8001388:	4620      	mov	r0, r4
 800138a:	bf54      	ite	pl
 800138c:	89a2      	ldrhpl	r2, [r4, #12]
 800138e:	8b22      	ldrhmi	r2, [r4, #24]
 8001390:	f001 0101 	and.w	r1, r1, #1
 8001394:	f884 303c 	strb.w	r3, [r4, #60]	; 0x3c
 8001398:	f7ff fb9c 	bl	8000ad4 <HAL_I2C_AddrCallback>
 800139c:	e51c      	b.n	8000dd8 <HAL_I2C_EV_IRQHandler+0x38>
 800139e:	699d      	ldr	r5, [r3, #24]
 80013a0:	6958      	ldr	r0, [r3, #20]
 80013a2:	e7dc      	b.n	800135e <HAL_I2C_EV_IRQHandler+0x5be>
 80013a4:	2200      	movs	r2, #0
 80013a6:	920c      	str	r2, [sp, #48]	; 0x30
 80013a8:	6959      	ldr	r1, [r3, #20]
 80013aa:	910c      	str	r1, [sp, #48]	; 0x30
 80013ac:	699b      	ldr	r3, [r3, #24]
 80013ae:	f884 203c 	strb.w	r2, [r4, #60]	; 0x3c
 80013b2:	930c      	str	r3, [sp, #48]	; 0x30
 80013b4:	9b0c      	ldr	r3, [sp, #48]	; 0x30
 80013b6:	e50f      	b.n	8000dd8 <HAL_I2C_EV_IRQHandler+0x38>
 80013b8:	20000000 	.word	0x20000000
 80013bc:	06c6      	lsls	r6, r0, #27
 80013be:	f140 80b1 	bpl.w	8001524 <HAL_I2C_EV_IRQHandler+0x784>
 80013c2:	0595      	lsls	r5, r2, #22
 80013c4:	f140 80ae 	bpl.w	8001524 <HAL_I2C_EV_IRQHandler+0x784>
 80013c8:	f894 503d 	ldrb.w	r5, [r4, #61]	; 0x3d
 80013cc:	685a      	ldr	r2, [r3, #4]
 80013ce:	b2ed      	uxtb	r5, r5
 80013d0:	f422 62e0 	bic.w	r2, r2, #1792	; 0x700
 80013d4:	605a      	str	r2, [r3, #4]
 80013d6:	2200      	movs	r2, #0
 80013d8:	920d      	str	r2, [sp, #52]	; 0x34
 80013da:	695a      	ldr	r2, [r3, #20]
 80013dc:	920d      	str	r2, [sp, #52]	; 0x34
 80013de:	681a      	ldr	r2, [r3, #0]
 80013e0:	f042 0201 	orr.w	r2, r2, #1
 80013e4:	601a      	str	r2, [r3, #0]
 80013e6:	9a0d      	ldr	r2, [sp, #52]	; 0x34
 80013e8:	681a      	ldr	r2, [r3, #0]
 80013ea:	f422 6280 	bic.w	r2, r2, #1024	; 0x400
 80013ee:	601a      	str	r2, [r3, #0]
 80013f0:	685a      	ldr	r2, [r3, #4]
 80013f2:	0510      	lsls	r0, r2, #20
 80013f4:	d520      	bpl.n	8001438 <HAL_I2C_EV_IRQHandler+0x698>
 80013f6:	f005 02f7 	and.w	r2, r5, #247	; 0xf7
 80013fa:	2a22      	cmp	r2, #34	; 0x22
 80013fc:	d14a      	bne.n	8001494 <HAL_I2C_EV_IRQHandler+0x6f4>
 80013fe:	6ba0      	ldr	r0, [r4, #56]	; 0x38
 8001400:	6802      	ldr	r2, [r0, #0]
 8001402:	6852      	ldr	r2, [r2, #4]
 8001404:	b292      	uxth	r2, r2
 8001406:	8562      	strh	r2, [r4, #42]	; 0x2a
 8001408:	8d62      	ldrh	r2, [r4, #42]	; 0x2a
 800140a:	b292      	uxth	r2, r2
 800140c:	b11a      	cbz	r2, 8001416 <HAL_I2C_EV_IRQHandler+0x676>
 800140e:	6c22      	ldr	r2, [r4, #64]	; 0x40
 8001410:	f042 0204 	orr.w	r2, r2, #4
 8001414:	6422      	str	r2, [r4, #64]	; 0x40
 8001416:	685a      	ldr	r2, [r3, #4]
 8001418:	f422 6200 	bic.w	r2, r2, #2048	; 0x800
 800141c:	605a      	str	r2, [r3, #4]
 800141e:	f7ff f9c5 	bl	80007ac <HAL_DMA_GetState>
 8001422:	2801      	cmp	r0, #1
 8001424:	d008      	beq.n	8001438 <HAL_I2C_EV_IRQHandler+0x698>
 8001426:	6ba0      	ldr	r0, [r4, #56]	; 0x38
 8001428:	4b79      	ldr	r3, [pc, #484]	; (8001610 <HAL_I2C_EV_IRQHandler+0x870>)
 800142a:	6343      	str	r3, [r0, #52]	; 0x34
 800142c:	f7ff f8e2 	bl	80005f4 <HAL_DMA_Abort_IT>
 8001430:	b110      	cbz	r0, 8001438 <HAL_I2C_EV_IRQHandler+0x698>
 8001432:	6ba0      	ldr	r0, [r4, #56]	; 0x38
 8001434:	6b43      	ldr	r3, [r0, #52]	; 0x34
 8001436:	4798      	blx	r3
 8001438:	8d63      	ldrh	r3, [r4, #42]	; 0x2a
 800143a:	b29b      	uxth	r3, r3
 800143c:	b313      	cbz	r3, 8001484 <HAL_I2C_EV_IRQHandler+0x6e4>
 800143e:	6823      	ldr	r3, [r4, #0]
 8001440:	695a      	ldr	r2, [r3, #20]
 8001442:	0751      	lsls	r1, r2, #29
 8001444:	d509      	bpl.n	800145a <HAL_I2C_EV_IRQHandler+0x6ba>
 8001446:	691a      	ldr	r2, [r3, #16]
 8001448:	6a63      	ldr	r3, [r4, #36]	; 0x24
 800144a:	701a      	strb	r2, [r3, #0]
 800144c:	6a63      	ldr	r3, [r4, #36]	; 0x24
 800144e:	3301      	adds	r3, #1
 8001450:	6263      	str	r3, [r4, #36]	; 0x24
 8001452:	8d63      	ldrh	r3, [r4, #42]	; 0x2a
 8001454:	3b01      	subs	r3, #1
 8001456:	b29b      	uxth	r3, r3
 8001458:	8563      	strh	r3, [r4, #42]	; 0x2a
 800145a:	6823      	ldr	r3, [r4, #0]
 800145c:	695a      	ldr	r2, [r3, #20]
 800145e:	0652      	lsls	r2, r2, #25
 8001460:	d509      	bpl.n	8001476 <HAL_I2C_EV_IRQHandler+0x6d6>
 8001462:	691a      	ldr	r2, [r3, #16]
 8001464:	6a63      	ldr	r3, [r4, #36]	; 0x24
 8001466:	701a      	strb	r2, [r3, #0]
 8001468:	6a63      	ldr	r3, [r4, #36]	; 0x24
 800146a:	3301      	adds	r3, #1
 800146c:	6263      	str	r3, [r4, #36]	; 0x24
 800146e:	8d63      	ldrh	r3, [r4, #42]	; 0x2a
 8001470:	3b01      	subs	r3, #1
 8001472:	b29b      	uxth	r3, r3
 8001474:	8563      	strh	r3, [r4, #42]	; 0x2a
 8001476:	8d63      	ldrh	r3, [r4, #42]	; 0x2a
 8001478:	b29b      	uxth	r3, r3
 800147a:	b11b      	cbz	r3, 8001484 <HAL_I2C_EV_IRQHandler+0x6e4>
 800147c:	6c23      	ldr	r3, [r4, #64]	; 0x40
 800147e:	f043 0304 	orr.w	r3, r3, #4
 8001482:	6423      	str	r3, [r4, #64]	; 0x40
 8001484:	6c23      	ldr	r3, [r4, #64]	; 0x40
 8001486:	b313      	cbz	r3, 80014ce <HAL_I2C_EV_IRQHandler+0x72e>
 8001488:	4620      	mov	r0, r4
 800148a:	b00f      	add	sp, #60	; 0x3c
 800148c:	e8bd 40f0 	ldmia.w	sp!, {r4, r5, r6, r7, lr}
 8001490:	f7ff bbde 	b.w	8000c50 <I2C_ITError>
 8001494:	6b60      	ldr	r0, [r4, #52]	; 0x34
 8001496:	6802      	ldr	r2, [r0, #0]
 8001498:	6852      	ldr	r2, [r2, #4]
 800149a:	b292      	uxth	r2, r2
 800149c:	8562      	strh	r2, [r4, #42]	; 0x2a
 800149e:	8d62      	ldrh	r2, [r4, #42]	; 0x2a
 80014a0:	b292      	uxth	r2, r2
 80014a2:	b11a      	cbz	r2, 80014ac <HAL_I2C_EV_IRQHandler+0x70c>
 80014a4:	6c22      	ldr	r2, [r4, #64]	; 0x40
 80014a6:	f042 0204 	orr.w	r2, r2, #4
 80014aa:	6422      	str	r2, [r4, #64]	; 0x40
 80014ac:	685a      	ldr	r2, [r3, #4]
 80014ae:	f422 6200 	bic.w	r2, r2, #2048	; 0x800
 80014b2:	605a      	str	r2, [r3, #4]
 80014b4:	f7ff f97a 	bl	80007ac <HAL_DMA_GetState>
 80014b8:	2801      	cmp	r0, #1
 80014ba:	d0bd      	beq.n	8001438 <HAL_I2C_EV_IRQHandler+0x698>
 80014bc:	6b60      	ldr	r0, [r4, #52]	; 0x34
 80014be:	4b54      	ldr	r3, [pc, #336]	; (8001610 <HAL_I2C_EV_IRQHandler+0x870>)
 80014c0:	6343      	str	r3, [r0, #52]	; 0x34
 80014c2:	f7ff f897 	bl	80005f4 <HAL_DMA_Abort_IT>
 80014c6:	2800      	cmp	r0, #0
 80014c8:	d0b6      	beq.n	8001438 <HAL_I2C_EV_IRQHandler+0x698>
 80014ca:	6b60      	ldr	r0, [r4, #52]	; 0x34
 80014cc:	e7b2      	b.n	8001434 <HAL_I2C_EV_IRQHandler+0x694>
 80014ce:	2d2a      	cmp	r5, #42	; 0x2a
 80014d0:	d106      	bne.n	80014e0 <HAL_I2C_EV_IRQHandler+0x740>
 80014d2:	6323      	str	r3, [r4, #48]	; 0x30
 80014d4:	2328      	movs	r3, #40	; 0x28
 80014d6:	4620      	mov	r0, r4
 80014d8:	f884 303d 	strb.w	r3, [r4, #61]	; 0x3d
 80014dc:	f7ff faf9 	bl	8000ad2 <HAL_I2C_SlaveRxCpltCallback>
 80014e0:	f894 303d 	ldrb.w	r3, [r4, #61]	; 0x3d
 80014e4:	2b28      	cmp	r3, #40	; 0x28
 80014e6:	d10c      	bne.n	8001502 <HAL_I2C_EV_IRQHandler+0x762>
 80014e8:	4b4a      	ldr	r3, [pc, #296]	; (8001614 <HAL_I2C_EV_IRQHandler+0x874>)
 80014ea:	2220      	movs	r2, #32
 80014ec:	62e3      	str	r3, [r4, #44]	; 0x2c
 80014ee:	2300      	movs	r3, #0
 80014f0:	4620      	mov	r0, r4
 80014f2:	6323      	str	r3, [r4, #48]	; 0x30
 80014f4:	f884 203d 	strb.w	r2, [r4, #61]	; 0x3d
 80014f8:	f884 303e 	strb.w	r3, [r4, #62]	; 0x3e
 80014fc:	f7ff faeb 	bl	8000ad6 <HAL_I2C_ListenCpltCallback>
 8001500:	e46a      	b.n	8000dd8 <HAL_I2C_EV_IRQHandler+0x38>
 8001502:	6b23      	ldr	r3, [r4, #48]	; 0x30
 8001504:	2b22      	cmp	r3, #34	; 0x22
 8001506:	d002      	beq.n	800150e <HAL_I2C_EV_IRQHandler+0x76e>
 8001508:	2d22      	cmp	r5, #34	; 0x22
 800150a:	f47f ac65 	bne.w	8000dd8 <HAL_I2C_EV_IRQHandler+0x38>
 800150e:	2300      	movs	r3, #0
 8001510:	2220      	movs	r2, #32
 8001512:	6323      	str	r3, [r4, #48]	; 0x30
 8001514:	f884 203d 	strb.w	r2, [r4, #61]	; 0x3d
 8001518:	f884 303e 	strb.w	r3, [r4, #62]	; 0x3e
 800151c:	4620      	mov	r0, r4
 800151e:	f7ff fad8 	bl	8000ad2 <HAL_I2C_SlaveRxCpltCallback>
 8001522:	e459      	b.n	8000dd8 <HAL_I2C_EV_IRQHandler+0x38>
 8001524:	f001 01f7 	and.w	r1, r1, #247	; 0xf7
 8001528:	2921      	cmp	r1, #33	; 0x21
 800152a:	f3c0 0580 	ubfx	r5, r0, #2, #1
 800152e:	d135      	bne.n	800159c <HAL_I2C_EV_IRQHandler+0x7fc>
 8001530:	0607      	lsls	r7, r0, #24
 8001532:	d527      	bpl.n	8001584 <HAL_I2C_EV_IRQHandler+0x7e4>
 8001534:	0556      	lsls	r6, r2, #21
 8001536:	d525      	bpl.n	8001584 <HAL_I2C_EV_IRQHandler+0x7e4>
 8001538:	bb3d      	cbnz	r5, 800158a <HAL_I2C_EV_IRQHandler+0x7ea>
 800153a:	f894 003d 	ldrb.w	r0, [r4, #61]	; 0x3d
 800153e:	8d62      	ldrh	r2, [r4, #42]	; 0x2a
 8001540:	b2c0      	uxtb	r0, r0
 8001542:	b292      	uxth	r2, r2
 8001544:	2a00      	cmp	r2, #0
 8001546:	f43f ac47 	beq.w	8000dd8 <HAL_I2C_EV_IRQHandler+0x38>
 800154a:	6a62      	ldr	r2, [r4, #36]	; 0x24
 800154c:	f812 5b01 	ldrb.w	r5, [r2], #1
 8001550:	611d      	str	r5, [r3, #16]
 8001552:	6262      	str	r2, [r4, #36]	; 0x24
 8001554:	8d62      	ldrh	r2, [r4, #42]	; 0x2a
 8001556:	3a01      	subs	r2, #1
 8001558:	b292      	uxth	r2, r2
 800155a:	8562      	strh	r2, [r4, #42]	; 0x2a
 800155c:	8d62      	ldrh	r2, [r4, #42]	; 0x2a
 800155e:	b292      	uxth	r2, r2
 8001560:	2a00      	cmp	r2, #0
 8001562:	f47f ac39 	bne.w	8000dd8 <HAL_I2C_EV_IRQHandler+0x38>
 8001566:	2829      	cmp	r0, #41	; 0x29
 8001568:	f47f ac36 	bne.w	8000dd8 <HAL_I2C_EV_IRQHandler+0x38>
 800156c:	685a      	ldr	r2, [r3, #4]
 800156e:	4620      	mov	r0, r4
 8001570:	f422 6280 	bic.w	r2, r2, #1024	; 0x400
 8001574:	605a      	str	r2, [r3, #4]
 8001576:	2328      	movs	r3, #40	; 0x28
 8001578:	6321      	str	r1, [r4, #48]	; 0x30
 800157a:	f884 303d 	strb.w	r3, [r4, #61]	; 0x3d
 800157e:	f7ff faa7 	bl	8000ad0 <HAL_I2C_SlaveTxCpltCallback>
 8001582:	e429      	b.n	8000dd8 <HAL_I2C_EV_IRQHandler+0x38>
 8001584:	2d00      	cmp	r5, #0
 8001586:	f43f ac27 	beq.w	8000dd8 <HAL_I2C_EV_IRQHandler+0x38>
 800158a:	0595      	lsls	r5, r2, #22
 800158c:	f57f ac24 	bpl.w	8000dd8 <HAL_I2C_EV_IRQHandler+0x38>
 8001590:	8d62      	ldrh	r2, [r4, #42]	; 0x2a
 8001592:	b292      	uxth	r2, r2
 8001594:	2a00      	cmp	r2, #0
 8001596:	f43f ac1f 	beq.w	8000dd8 <HAL_I2C_EV_IRQHandler+0x38>
 800159a:	e5b9      	b.n	8001110 <HAL_I2C_EV_IRQHandler+0x370>
 800159c:	0640      	lsls	r0, r0, #25
 800159e:	d527      	bpl.n	80015f0 <HAL_I2C_EV_IRQHandler+0x850>
 80015a0:	0551      	lsls	r1, r2, #21
 80015a2:	d525      	bpl.n	80015f0 <HAL_I2C_EV_IRQHandler+0x850>
 80015a4:	bb3d      	cbnz	r5, 80015f6 <HAL_I2C_EV_IRQHandler+0x856>
 80015a6:	f894 203d 	ldrb.w	r2, [r4, #61]	; 0x3d
 80015aa:	8d61      	ldrh	r1, [r4, #42]	; 0x2a
 80015ac:	b2d2      	uxtb	r2, r2
 80015ae:	b289      	uxth	r1, r1
 80015b0:	2900      	cmp	r1, #0
 80015b2:	f43f ac11 	beq.w	8000dd8 <HAL_I2C_EV_IRQHandler+0x38>
 80015b6:	6919      	ldr	r1, [r3, #16]
 80015b8:	6a63      	ldr	r3, [r4, #36]	; 0x24
 80015ba:	7019      	strb	r1, [r3, #0]
 80015bc:	6a63      	ldr	r3, [r4, #36]	; 0x24
 80015be:	3301      	adds	r3, #1
 80015c0:	6263      	str	r3, [r4, #36]	; 0x24
 80015c2:	8d63      	ldrh	r3, [r4, #42]	; 0x2a
 80015c4:	3b01      	subs	r3, #1
 80015c6:	b29b      	uxth	r3, r3
 80015c8:	8563      	strh	r3, [r4, #42]	; 0x2a
 80015ca:	8d63      	ldrh	r3, [r4, #42]	; 0x2a
 80015cc:	b29b      	uxth	r3, r3
 80015ce:	2b00      	cmp	r3, #0
 80015d0:	f47f ac02 	bne.w	8000dd8 <HAL_I2C_EV_IRQHandler+0x38>
 80015d4:	2a2a      	cmp	r2, #42	; 0x2a
 80015d6:	f47f abff 	bne.w	8000dd8 <HAL_I2C_EV_IRQHandler+0x38>
 80015da:	6822      	ldr	r2, [r4, #0]
 80015dc:	6853      	ldr	r3, [r2, #4]
 80015de:	f423 6380 	bic.w	r3, r3, #1024	; 0x400
 80015e2:	6053      	str	r3, [r2, #4]
 80015e4:	2322      	movs	r3, #34	; 0x22
 80015e6:	6323      	str	r3, [r4, #48]	; 0x30
 80015e8:	2328      	movs	r3, #40	; 0x28
 80015ea:	f884 303d 	strb.w	r3, [r4, #61]	; 0x3d
 80015ee:	e795      	b.n	800151c <HAL_I2C_EV_IRQHandler+0x77c>
 80015f0:	2d00      	cmp	r5, #0
 80015f2:	f43f abf1 	beq.w	8000dd8 <HAL_I2C_EV_IRQHandler+0x38>
 80015f6:	0592      	lsls	r2, r2, #22
 80015f8:	f57f abee 	bpl.w	8000dd8 <HAL_I2C_EV_IRQHandler+0x38>
 80015fc:	8d62      	ldrh	r2, [r4, #42]	; 0x2a
 80015fe:	b292      	uxth	r2, r2
 8001600:	2a00      	cmp	r2, #0
 8001602:	f43f abe9 	beq.w	8000dd8 <HAL_I2C_EV_IRQHandler+0x38>
 8001606:	691a      	ldr	r2, [r3, #16]
 8001608:	6a63      	ldr	r3, [r4, #36]	; 0x24
 800160a:	701a      	strb	r2, [r3, #0]
 800160c:	e64b      	b.n	80012a6 <HAL_I2C_EV_IRQHandler+0x506>
 800160e:	bf00      	nop
 8001610:	08000b91 	.word	0x08000b91
 8001614:	ffff0000 	.word	0xffff0000

08001618 <HAL_RCC_OscConfig>:
 8001618:	e92d 41f3 	stmdb	sp!, {r0, r1, r4, r5, r6, r7, r8, lr}
 800161c:	4605      	mov	r5, r0
 800161e:	b338      	cbz	r0, 8001670 <HAL_RCC_OscConfig+0x58>
 8001620:	6803      	ldr	r3, [r0, #0]
 8001622:	07db      	lsls	r3, r3, #31
 8001624:	d410      	bmi.n	8001648 <HAL_RCC_OscConfig+0x30>
 8001626:	682b      	ldr	r3, [r5, #0]
 8001628:	079f      	lsls	r7, r3, #30
 800162a:	d45e      	bmi.n	80016ea <HAL_RCC_OscConfig+0xd2>
 800162c:	682b      	ldr	r3, [r5, #0]
 800162e:	0719      	lsls	r1, r3, #28
 8001630:	f100 8095 	bmi.w	800175e <HAL_RCC_OscConfig+0x146>
 8001634:	682b      	ldr	r3, [r5, #0]
 8001636:	075a      	lsls	r2, r3, #29
 8001638:	f100 80c1 	bmi.w	80017be <HAL_RCC_OscConfig+0x1a6>
 800163c:	69e8      	ldr	r0, [r5, #28]
 800163e:	2800      	cmp	r0, #0
 8001640:	f040 812c 	bne.w	800189c <HAL_RCC_OscConfig+0x284>
 8001644:	2000      	movs	r0, #0
 8001646:	e029      	b.n	800169c <HAL_RCC_OscConfig+0x84>
 8001648:	4c90      	ldr	r4, [pc, #576]	; (800188c <HAL_RCC_OscConfig+0x274>)
 800164a:	6863      	ldr	r3, [r4, #4]
 800164c:	f003 030c 	and.w	r3, r3, #12
 8001650:	2b04      	cmp	r3, #4
 8001652:	d007      	beq.n	8001664 <HAL_RCC_OscConfig+0x4c>
 8001654:	6863      	ldr	r3, [r4, #4]
 8001656:	f003 030c 	and.w	r3, r3, #12
 800165a:	2b08      	cmp	r3, #8
 800165c:	d10a      	bne.n	8001674 <HAL_RCC_OscConfig+0x5c>
 800165e:	6863      	ldr	r3, [r4, #4]
 8001660:	03de      	lsls	r6, r3, #15
 8001662:	d507      	bpl.n	8001674 <HAL_RCC_OscConfig+0x5c>
 8001664:	6823      	ldr	r3, [r4, #0]
 8001666:	039c      	lsls	r4, r3, #14
 8001668:	d5dd      	bpl.n	8001626 <HAL_RCC_OscConfig+0xe>
 800166a:	686b      	ldr	r3, [r5, #4]
 800166c:	2b00      	cmp	r3, #0
 800166e:	d1da      	bne.n	8001626 <HAL_RCC_OscConfig+0xe>
 8001670:	2001      	movs	r0, #1
 8001672:	e013      	b.n	800169c <HAL_RCC_OscConfig+0x84>
 8001674:	686b      	ldr	r3, [r5, #4]
 8001676:	f5b3 3f80 	cmp.w	r3, #65536	; 0x10000
 800167a:	d112      	bne.n	80016a2 <HAL_RCC_OscConfig+0x8a>
 800167c:	6823      	ldr	r3, [r4, #0]
 800167e:	f443 3380 	orr.w	r3, r3, #65536	; 0x10000
 8001682:	6023      	str	r3, [r4, #0]
 8001684:	f7fe ff06 	bl	8000494 <HAL_GetTick>
 8001688:	4606      	mov	r6, r0
 800168a:	6823      	ldr	r3, [r4, #0]
 800168c:	0398      	lsls	r0, r3, #14
 800168e:	d4ca      	bmi.n	8001626 <HAL_RCC_OscConfig+0xe>
 8001690:	f7fe ff00 	bl	8000494 <HAL_GetTick>
 8001694:	1b80      	subs	r0, r0, r6
 8001696:	2864      	cmp	r0, #100	; 0x64
 8001698:	d9f7      	bls.n	800168a <HAL_RCC_OscConfig+0x72>
 800169a:	2003      	movs	r0, #3
 800169c:	b002      	add	sp, #8
 800169e:	e8bd 81f0 	ldmia.w	sp!, {r4, r5, r6, r7, r8, pc}
 80016a2:	b99b      	cbnz	r3, 80016cc <HAL_RCC_OscConfig+0xb4>
 80016a4:	6823      	ldr	r3, [r4, #0]
 80016a6:	f423 3380 	bic.w	r3, r3, #65536	; 0x10000
 80016aa:	6023      	str	r3, [r4, #0]
 80016ac:	6823      	ldr	r3, [r4, #0]
 80016ae:	f423 2380 	bic.w	r3, r3, #262144	; 0x40000
 80016b2:	6023      	str	r3, [r4, #0]
 80016b4:	f7fe feee 	bl	8000494 <HAL_GetTick>
 80016b8:	4606      	mov	r6, r0
 80016ba:	6823      	ldr	r3, [r4, #0]
 80016bc:	0399      	lsls	r1, r3, #14
 80016be:	d5b2      	bpl.n	8001626 <HAL_RCC_OscConfig+0xe>
 80016c0:	f7fe fee8 	bl	8000494 <HAL_GetTick>
 80016c4:	1b80      	subs	r0, r0, r6
 80016c6:	2864      	cmp	r0, #100	; 0x64
 80016c8:	d9f7      	bls.n	80016ba <HAL_RCC_OscConfig+0xa2>
 80016ca:	e7e6      	b.n	800169a <HAL_RCC_OscConfig+0x82>
 80016cc:	f5b3 2fa0 	cmp.w	r3, #327680	; 0x50000
 80016d0:	6823      	ldr	r3, [r4, #0]
 80016d2:	d103      	bne.n	80016dc <HAL_RCC_OscConfig+0xc4>
 80016d4:	f443 2380 	orr.w	r3, r3, #262144	; 0x40000
 80016d8:	6023      	str	r3, [r4, #0]
 80016da:	e7cf      	b.n	800167c <HAL_RCC_OscConfig+0x64>
 80016dc:	f423 3380 	bic.w	r3, r3, #65536	; 0x10000
 80016e0:	6023      	str	r3, [r4, #0]
 80016e2:	6823      	ldr	r3, [r4, #0]
 80016e4:	f423 2380 	bic.w	r3, r3, #262144	; 0x40000
 80016e8:	e7cb      	b.n	8001682 <HAL_RCC_OscConfig+0x6a>
 80016ea:	4c68      	ldr	r4, [pc, #416]	; (800188c <HAL_RCC_OscConfig+0x274>)
 80016ec:	6863      	ldr	r3, [r4, #4]
 80016ee:	f013 0f0c 	tst.w	r3, #12
 80016f2:	d007      	beq.n	8001704 <HAL_RCC_OscConfig+0xec>
 80016f4:	6863      	ldr	r3, [r4, #4]
 80016f6:	f003 030c 	and.w	r3, r3, #12
 80016fa:	2b08      	cmp	r3, #8
 80016fc:	d110      	bne.n	8001720 <HAL_RCC_OscConfig+0x108>
 80016fe:	6863      	ldr	r3, [r4, #4]
 8001700:	03da      	lsls	r2, r3, #15
 8001702:	d40d      	bmi.n	8001720 <HAL_RCC_OscConfig+0x108>
 8001704:	6823      	ldr	r3, [r4, #0]
 8001706:	079b      	lsls	r3, r3, #30
 8001708:	d502      	bpl.n	8001710 <HAL_RCC_OscConfig+0xf8>
 800170a:	692b      	ldr	r3, [r5, #16]
 800170c:	2b01      	cmp	r3, #1
 800170e:	d1af      	bne.n	8001670 <HAL_RCC_OscConfig+0x58>
 8001710:	6823      	ldr	r3, [r4, #0]
 8001712:	696a      	ldr	r2, [r5, #20]
 8001714:	f023 03f8 	bic.w	r3, r3, #248	; 0xf8
 8001718:	ea43 03c2 	orr.w	r3, r3, r2, lsl #3
 800171c:	6023      	str	r3, [r4, #0]
 800171e:	e785      	b.n	800162c <HAL_RCC_OscConfig+0x14>
 8001720:	692a      	ldr	r2, [r5, #16]
 8001722:	4b5b      	ldr	r3, [pc, #364]	; (8001890 <HAL_RCC_OscConfig+0x278>)
 8001724:	b16a      	cbz	r2, 8001742 <HAL_RCC_OscConfig+0x12a>
 8001726:	2201      	movs	r2, #1
 8001728:	601a      	str	r2, [r3, #0]
 800172a:	f7fe feb3 	bl	8000494 <HAL_GetTick>
 800172e:	4606      	mov	r6, r0
 8001730:	6823      	ldr	r3, [r4, #0]
 8001732:	079f      	lsls	r7, r3, #30
 8001734:	d4ec      	bmi.n	8001710 <HAL_RCC_OscConfig+0xf8>
 8001736:	f7fe fead 	bl	8000494 <HAL_GetTick>
 800173a:	1b80      	subs	r0, r0, r6
 800173c:	2802      	cmp	r0, #2
 800173e:	d9f7      	bls.n	8001730 <HAL_RCC_OscConfig+0x118>
 8001740:	e7ab      	b.n	800169a <HAL_RCC_OscConfig+0x82>
 8001742:	601a      	str	r2, [r3, #0]
 8001744:	f7fe fea6 	bl	8000494 <HAL_GetTick>
 8001748:	4606      	mov	r6, r0
 800174a:	6823      	ldr	r3, [r4, #0]
 800174c:	0798      	lsls	r0, r3, #30
 800174e:	f57f af6d 	bpl.w	800162c <HAL_RCC_OscConfig+0x14>
 8001752:	f7fe fe9f 	bl	8000494 <HAL_GetTick>
 8001756:	1b80      	subs	r0, r0, r6
 8001758:	2802      	cmp	r0, #2
 800175a:	d9f6      	bls.n	800174a <HAL_RCC_OscConfig+0x132>
 800175c:	e79d      	b.n	800169a <HAL_RCC_OscConfig+0x82>
 800175e:	69aa      	ldr	r2, [r5, #24]
 8001760:	4e4a      	ldr	r6, [pc, #296]	; (800188c <HAL_RCC_OscConfig+0x274>)
 8001762:	4b4b      	ldr	r3, [pc, #300]	; (8001890 <HAL_RCC_OscConfig+0x278>)
 8001764:	b1e2      	cbz	r2, 80017a0 <HAL_RCC_OscConfig+0x188>
 8001766:	2201      	movs	r2, #1
 8001768:	f8c3 2480 	str.w	r2, [r3, #1152]	; 0x480
 800176c:	f7fe fe92 	bl	8000494 <HAL_GetTick>
 8001770:	4604      	mov	r4, r0
 8001772:	6a73      	ldr	r3, [r6, #36]	; 0x24
 8001774:	079b      	lsls	r3, r3, #30
 8001776:	d50d      	bpl.n	8001794 <HAL_RCC_OscConfig+0x17c>
 8001778:	f44f 52fa 	mov.w	r2, #8000	; 0x1f40
 800177c:	4b45      	ldr	r3, [pc, #276]	; (8001894 <HAL_RCC_OscConfig+0x27c>)
 800177e:	681b      	ldr	r3, [r3, #0]
 8001780:	fbb3 f3f2 	udiv	r3, r3, r2
 8001784:	9301      	str	r3, [sp, #4]
 8001786:	bf00      	nop
 8001788:	9b01      	ldr	r3, [sp, #4]
 800178a:	1e5a      	subs	r2, r3, #1
 800178c:	9201      	str	r2, [sp, #4]
 800178e:	2b00      	cmp	r3, #0
 8001790:	d1f9      	bne.n	8001786 <HAL_RCC_OscConfig+0x16e>
 8001792:	e74f      	b.n	8001634 <HAL_RCC_OscConfig+0x1c>
 8001794:	f7fe fe7e 	bl	8000494 <HAL_GetTick>
 8001798:	1b00      	subs	r0, r0, r4
 800179a:	2802      	cmp	r0, #2
 800179c:	d9e9      	bls.n	8001772 <HAL_RCC_OscConfig+0x15a>
 800179e:	e77c      	b.n	800169a <HAL_RCC_OscConfig+0x82>
 80017a0:	f8c3 2480 	str.w	r2, [r3, #1152]	; 0x480
 80017a4:	f7fe fe76 	bl	8000494 <HAL_GetTick>
 80017a8:	4604      	mov	r4, r0
 80017aa:	6a73      	ldr	r3, [r6, #36]	; 0x24
 80017ac:	079f      	lsls	r7, r3, #30
 80017ae:	f57f af41 	bpl.w	8001634 <HAL_RCC_OscConfig+0x1c>
 80017b2:	f7fe fe6f 	bl	8000494 <HAL_GetTick>
 80017b6:	1b00      	subs	r0, r0, r4
 80017b8:	2802      	cmp	r0, #2
 80017ba:	d9f6      	bls.n	80017aa <HAL_RCC_OscConfig+0x192>
 80017bc:	e76d      	b.n	800169a <HAL_RCC_OscConfig+0x82>
 80017be:	4c33      	ldr	r4, [pc, #204]	; (800188c <HAL_RCC_OscConfig+0x274>)
 80017c0:	69e3      	ldr	r3, [r4, #28]
 80017c2:	00d8      	lsls	r0, r3, #3
 80017c4:	d424      	bmi.n	8001810 <HAL_RCC_OscConfig+0x1f8>
 80017c6:	2701      	movs	r7, #1
 80017c8:	69e3      	ldr	r3, [r4, #28]
 80017ca:	f043 5380 	orr.w	r3, r3, #268435456	; 0x10000000
 80017ce:	61e3      	str	r3, [r4, #28]
 80017d0:	69e3      	ldr	r3, [r4, #28]
 80017d2:	f003 5380 	and.w	r3, r3, #268435456	; 0x10000000
 80017d6:	9300      	str	r3, [sp, #0]
 80017d8:	9b00      	ldr	r3, [sp, #0]
 80017da:	4e2f      	ldr	r6, [pc, #188]	; (8001898 <HAL_RCC_OscConfig+0x280>)
 80017dc:	6833      	ldr	r3, [r6, #0]
 80017de:	05d9      	lsls	r1, r3, #23
 80017e0:	d518      	bpl.n	8001814 <HAL_RCC_OscConfig+0x1fc>
 80017e2:	68eb      	ldr	r3, [r5, #12]
 80017e4:	2b01      	cmp	r3, #1
 80017e6:	d126      	bne.n	8001836 <HAL_RCC_OscConfig+0x21e>
 80017e8:	6a23      	ldr	r3, [r4, #32]
 80017ea:	f043 0301 	orr.w	r3, r3, #1
 80017ee:	6223      	str	r3, [r4, #32]
 80017f0:	f7fe fe50 	bl	8000494 <HAL_GetTick>
 80017f4:	f241 3888 	movw	r8, #5000	; 0x1388
 80017f8:	4606      	mov	r6, r0
 80017fa:	6a23      	ldr	r3, [r4, #32]
 80017fc:	079b      	lsls	r3, r3, #30
 80017fe:	d53f      	bpl.n	8001880 <HAL_RCC_OscConfig+0x268>
 8001800:	2f00      	cmp	r7, #0
 8001802:	f43f af1b 	beq.w	800163c <HAL_RCC_OscConfig+0x24>
 8001806:	69e3      	ldr	r3, [r4, #28]
 8001808:	f023 5380 	bic.w	r3, r3, #268435456	; 0x10000000
 800180c:	61e3      	str	r3, [r4, #28]
 800180e:	e715      	b.n	800163c <HAL_RCC_OscConfig+0x24>
 8001810:	2700      	movs	r7, #0
 8001812:	e7e2      	b.n	80017da <HAL_RCC_OscConfig+0x1c2>
 8001814:	6833      	ldr	r3, [r6, #0]
 8001816:	f443 7380 	orr.w	r3, r3, #256	; 0x100
 800181a:	6033      	str	r3, [r6, #0]
 800181c:	f7fe fe3a 	bl	8000494 <HAL_GetTick>
 8001820:	4680      	mov	r8, r0
 8001822:	6833      	ldr	r3, [r6, #0]
 8001824:	05da      	lsls	r2, r3, #23
 8001826:	d4dc      	bmi.n	80017e2 <HAL_RCC_OscConfig+0x1ca>
 8001828:	f7fe fe34 	bl	8000494 <HAL_GetTick>
 800182c:	eba0 0008 	sub.w	r0, r0, r8
 8001830:	2864      	cmp	r0, #100	; 0x64
 8001832:	d9f6      	bls.n	8001822 <HAL_RCC_OscConfig+0x20a>
 8001834:	e731      	b.n	800169a <HAL_RCC_OscConfig+0x82>
 8001836:	b9ab      	cbnz	r3, 8001864 <HAL_RCC_OscConfig+0x24c>
 8001838:	6a23      	ldr	r3, [r4, #32]
 800183a:	f241 3888 	movw	r8, #5000	; 0x1388
 800183e:	f023 0301 	bic.w	r3, r3, #1
 8001842:	6223      	str	r3, [r4, #32]
 8001844:	6a23      	ldr	r3, [r4, #32]
 8001846:	f023 0304 	bic.w	r3, r3, #4
 800184a:	6223      	str	r3, [r4, #32]
 800184c:	f7fe fe22 	bl	8000494 <HAL_GetTick>
 8001850:	4606      	mov	r6, r0
 8001852:	6a23      	ldr	r3, [r4, #32]
 8001854:	0798      	lsls	r0, r3, #30
 8001856:	d5d3      	bpl.n	8001800 <HAL_RCC_OscConfig+0x1e8>
 8001858:	f7fe fe1c 	bl	8000494 <HAL_GetTick>
 800185c:	1b80      	subs	r0, r0, r6
 800185e:	4540      	cmp	r0, r8
 8001860:	d9f7      	bls.n	8001852 <HAL_RCC_OscConfig+0x23a>
 8001862:	e71a      	b.n	800169a <HAL_RCC_OscConfig+0x82>
 8001864:	2b05      	cmp	r3, #5
 8001866:	6a23      	ldr	r3, [r4, #32]
 8001868:	d103      	bne.n	8001872 <HAL_RCC_OscConfig+0x25a>
 800186a:	f043 0304 	orr.w	r3, r3, #4
 800186e:	6223      	str	r3, [r4, #32]
 8001870:	e7ba      	b.n	80017e8 <HAL_RCC_OscConfig+0x1d0>
 8001872:	f023 0301 	bic.w	r3, r3, #1
 8001876:	6223      	str	r3, [r4, #32]
 8001878:	6a23      	ldr	r3, [r4, #32]
 800187a:	f023 0304 	bic.w	r3, r3, #4
 800187e:	e7b6      	b.n	80017ee <HAL_RCC_OscConfig+0x1d6>
 8001880:	f7fe fe08 	bl	8000494 <HAL_GetTick>
 8001884:	1b80      	subs	r0, r0, r6
 8001886:	4540      	cmp	r0, r8
 8001888:	d9b7      	bls.n	80017fa <HAL_RCC_OscConfig+0x1e2>
 800188a:	e706      	b.n	800169a <HAL_RCC_OscConfig+0x82>
 800188c:	40021000 	.word	0x40021000
 8001890:	42420000 	.word	0x42420000
 8001894:	20000000 	.word	0x20000000
 8001898:	40007000 	.word	0x40007000
 800189c:	4c2a      	ldr	r4, [pc, #168]	; (8001948 <HAL_RCC_OscConfig+0x330>)
 800189e:	6863      	ldr	r3, [r4, #4]
 80018a0:	f003 030c 	and.w	r3, r3, #12
 80018a4:	2b08      	cmp	r3, #8
 80018a6:	d03e      	beq.n	8001926 <HAL_RCC_OscConfig+0x30e>
 80018a8:	2200      	movs	r2, #0
 80018aa:	4b28      	ldr	r3, [pc, #160]	; (800194c <HAL_RCC_OscConfig+0x334>)
 80018ac:	2802      	cmp	r0, #2
 80018ae:	661a      	str	r2, [r3, #96]	; 0x60
 80018b0:	d12c      	bne.n	800190c <HAL_RCC_OscConfig+0x2f4>
 80018b2:	f7fe fdef 	bl	8000494 <HAL_GetTick>
 80018b6:	4606      	mov	r6, r0
 80018b8:	6823      	ldr	r3, [r4, #0]
 80018ba:	0199      	lsls	r1, r3, #6
 80018bc:	d420      	bmi.n	8001900 <HAL_RCC_OscConfig+0x2e8>
 80018be:	6a2b      	ldr	r3, [r5, #32]
 80018c0:	f5b3 3f80 	cmp.w	r3, #65536	; 0x10000
 80018c4:	d105      	bne.n	80018d2 <HAL_RCC_OscConfig+0x2ba>
 80018c6:	6862      	ldr	r2, [r4, #4]
 80018c8:	68a9      	ldr	r1, [r5, #8]
 80018ca:	f422 3200 	bic.w	r2, r2, #131072	; 0x20000
 80018ce:	430a      	orrs	r2, r1
 80018d0:	6062      	str	r2, [r4, #4]
 80018d2:	6a69      	ldr	r1, [r5, #36]	; 0x24
 80018d4:	6862      	ldr	r2, [r4, #4]
 80018d6:	430b      	orrs	r3, r1
 80018d8:	f422 1274 	bic.w	r2, r2, #3997696	; 0x3d0000
 80018dc:	4313      	orrs	r3, r2
 80018de:	2201      	movs	r2, #1
 80018e0:	6063      	str	r3, [r4, #4]
 80018e2:	4b1a      	ldr	r3, [pc, #104]	; (800194c <HAL_RCC_OscConfig+0x334>)
 80018e4:	661a      	str	r2, [r3, #96]	; 0x60
 80018e6:	f7fe fdd5 	bl	8000494 <HAL_GetTick>
 80018ea:	4605      	mov	r5, r0
 80018ec:	6823      	ldr	r3, [r4, #0]
 80018ee:	019a      	lsls	r2, r3, #6
 80018f0:	f53f aea8 	bmi.w	8001644 <HAL_RCC_OscConfig+0x2c>
 80018f4:	f7fe fdce 	bl	8000494 <HAL_GetTick>
 80018f8:	1b40      	subs	r0, r0, r5
 80018fa:	2802      	cmp	r0, #2
 80018fc:	d9f6      	bls.n	80018ec <HAL_RCC_OscConfig+0x2d4>
 80018fe:	e6cc      	b.n	800169a <HAL_RCC_OscConfig+0x82>
 8001900:	f7fe fdc8 	bl	8000494 <HAL_GetTick>
 8001904:	1b80      	subs	r0, r0, r6
 8001906:	2802      	cmp	r0, #2
 8001908:	d9d6      	bls.n	80018b8 <HAL_RCC_OscConfig+0x2a0>
 800190a:	e6c6      	b.n	800169a <HAL_RCC_OscConfig+0x82>
 800190c:	f7fe fdc2 	bl	8000494 <HAL_GetTick>
 8001910:	4605      	mov	r5, r0
 8001912:	6823      	ldr	r3, [r4, #0]
 8001914:	019b      	lsls	r3, r3, #6
 8001916:	f57f ae95 	bpl.w	8001644 <HAL_RCC_OscConfig+0x2c>
 800191a:	f7fe fdbb 	bl	8000494 <HAL_GetTick>
 800191e:	1b40      	subs	r0, r0, r5
 8001920:	2802      	cmp	r0, #2
 8001922:	d9f6      	bls.n	8001912 <HAL_RCC_OscConfig+0x2fa>
 8001924:	e6b9      	b.n	800169a <HAL_RCC_OscConfig+0x82>
 8001926:	2801      	cmp	r0, #1
 8001928:	f43f aeb8 	beq.w	800169c <HAL_RCC_OscConfig+0x84>
 800192c:	6863      	ldr	r3, [r4, #4]
 800192e:	6a2a      	ldr	r2, [r5, #32]
 8001930:	f403 3180 	and.w	r1, r3, #65536	; 0x10000
 8001934:	4291      	cmp	r1, r2
 8001936:	f47f ae9b 	bne.w	8001670 <HAL_RCC_OscConfig+0x58>
 800193a:	6a6a      	ldr	r2, [r5, #36]	; 0x24
 800193c:	f403 1370 	and.w	r3, r3, #3932160	; 0x3c0000
 8001940:	4293      	cmp	r3, r2
 8001942:	f43f ae7f 	beq.w	8001644 <HAL_RCC_OscConfig+0x2c>
 8001946:	e693      	b.n	8001670 <HAL_RCC_OscConfig+0x58>
 8001948:	40021000 	.word	0x40021000
 800194c:	42420000 	.word	0x42420000

08001950 <HAL_RCC_GetSysClockFreq>:
 8001950:	4a0d      	ldr	r2, [pc, #52]	; (8001988 <HAL_RCC_GetSysClockFreq+0x38>)
 8001952:	6853      	ldr	r3, [r2, #4]
 8001954:	f003 010c 	and.w	r1, r3, #12
 8001958:	2908      	cmp	r1, #8
 800195a:	d112      	bne.n	8001982 <HAL_RCC_GetSysClockFreq+0x32>
 800195c:	480b      	ldr	r0, [pc, #44]	; (800198c <HAL_RCC_GetSysClockFreq+0x3c>)
 800195e:	f3c3 4183 	ubfx	r1, r3, #18, #4
 8001962:	03db      	lsls	r3, r3, #15
 8001964:	5c40      	ldrb	r0, [r0, r1]
 8001966:	d509      	bpl.n	800197c <HAL_RCC_GetSysClockFreq+0x2c>
 8001968:	6853      	ldr	r3, [r2, #4]
 800196a:	4a09      	ldr	r2, [pc, #36]	; (8001990 <HAL_RCC_GetSysClockFreq+0x40>)
 800196c:	f3c3 4340 	ubfx	r3, r3, #17, #1
 8001970:	4350      	muls	r0, r2
 8001972:	4a08      	ldr	r2, [pc, #32]	; (8001994 <HAL_RCC_GetSysClockFreq+0x44>)
 8001974:	5cd3      	ldrb	r3, [r2, r3]
 8001976:	fbb0 f0f3 	udiv	r0, r0, r3
 800197a:	4770      	bx	lr
 800197c:	4b06      	ldr	r3, [pc, #24]	; (8001998 <HAL_RCC_GetSysClockFreq+0x48>)
 800197e:	4358      	muls	r0, r3
 8001980:	4770      	bx	lr
 8001982:	4803      	ldr	r0, [pc, #12]	; (8001990 <HAL_RCC_GetSysClockFreq+0x40>)
 8001984:	4770      	bx	lr
 8001986:	bf00      	nop
 8001988:	40021000 	.word	0x40021000
 800198c:	08001b7c 	.word	0x08001b7c
 8001990:	007a1200 	.word	0x007a1200
 8001994:	08001b8c 	.word	0x08001b8c
 8001998:	003d0900 	.word	0x003d0900

0800199c <HAL_RCC_ClockConfig>:
 800199c:	e92d 41f0 	stmdb	sp!, {r4, r5, r6, r7, r8, lr}
 80019a0:	460d      	mov	r5, r1
 80019a2:	4604      	mov	r4, r0
 80019a4:	b910      	cbnz	r0, 80019ac <HAL_RCC_ClockConfig+0x10>
 80019a6:	2001      	movs	r0, #1
 80019a8:	e8bd 81f0 	ldmia.w	sp!, {r4, r5, r6, r7, r8, pc}
 80019ac:	4a44      	ldr	r2, [pc, #272]	; (8001ac0 <HAL_RCC_ClockConfig+0x124>)
 80019ae:	6813      	ldr	r3, [r2, #0]
 80019b0:	f003 0307 	and.w	r3, r3, #7
 80019b4:	428b      	cmp	r3, r1
 80019b6:	d328      	bcc.n	8001a0a <HAL_RCC_ClockConfig+0x6e>
 80019b8:	6821      	ldr	r1, [r4, #0]
 80019ba:	078e      	lsls	r6, r1, #30
 80019bc:	d430      	bmi.n	8001a20 <HAL_RCC_ClockConfig+0x84>
 80019be:	07ca      	lsls	r2, r1, #31
 80019c0:	d443      	bmi.n	8001a4a <HAL_RCC_ClockConfig+0xae>
 80019c2:	4a3f      	ldr	r2, [pc, #252]	; (8001ac0 <HAL_RCC_ClockConfig+0x124>)
 80019c4:	6813      	ldr	r3, [r2, #0]
 80019c6:	f003 0307 	and.w	r3, r3, #7
 80019ca:	42ab      	cmp	r3, r5
 80019cc:	d865      	bhi.n	8001a9a <HAL_RCC_ClockConfig+0xfe>
 80019ce:	6822      	ldr	r2, [r4, #0]
 80019d0:	4d3c      	ldr	r5, [pc, #240]	; (8001ac4 <HAL_RCC_ClockConfig+0x128>)
 80019d2:	f012 0f04 	tst.w	r2, #4
 80019d6:	d16c      	bne.n	8001ab2 <HAL_RCC_ClockConfig+0x116>
 80019d8:	0713      	lsls	r3, r2, #28
 80019da:	d506      	bpl.n	80019ea <HAL_RCC_ClockConfig+0x4e>
 80019dc:	686b      	ldr	r3, [r5, #4]
 80019de:	6922      	ldr	r2, [r4, #16]
 80019e0:	f423 5360 	bic.w	r3, r3, #14336	; 0x3800
 80019e4:	ea43 03c2 	orr.w	r3, r3, r2, lsl #3
 80019e8:	606b      	str	r3, [r5, #4]
 80019ea:	f7ff ffb1 	bl	8001950 <HAL_RCC_GetSysClockFreq>
 80019ee:	686b      	ldr	r3, [r5, #4]
 80019f0:	4a35      	ldr	r2, [pc, #212]	; (8001ac8 <HAL_RCC_ClockConfig+0x12c>)
 80019f2:	f3c3 1303 	ubfx	r3, r3, #4, #4
 80019f6:	5cd3      	ldrb	r3, [r2, r3]
 80019f8:	40d8      	lsrs	r0, r3
 80019fa:	4b34      	ldr	r3, [pc, #208]	; (8001acc <HAL_RCC_ClockConfig+0x130>)
 80019fc:	6018      	str	r0, [r3, #0]
 80019fe:	4b34      	ldr	r3, [pc, #208]	; (8001ad0 <HAL_RCC_ClockConfig+0x134>)
 8001a00:	6818      	ldr	r0, [r3, #0]
 8001a02:	f7fe fd05 	bl	8000410 <HAL_InitTick>
 8001a06:	2000      	movs	r0, #0
 8001a08:	e7ce      	b.n	80019a8 <HAL_RCC_ClockConfig+0xc>
 8001a0a:	6813      	ldr	r3, [r2, #0]
 8001a0c:	f023 0307 	bic.w	r3, r3, #7
 8001a10:	430b      	orrs	r3, r1
 8001a12:	6013      	str	r3, [r2, #0]
 8001a14:	6813      	ldr	r3, [r2, #0]
 8001a16:	f003 0307 	and.w	r3, r3, #7
 8001a1a:	428b      	cmp	r3, r1
 8001a1c:	d1c3      	bne.n	80019a6 <HAL_RCC_ClockConfig+0xa>
 8001a1e:	e7cb      	b.n	80019b8 <HAL_RCC_ClockConfig+0x1c>
 8001a20:	4b28      	ldr	r3, [pc, #160]	; (8001ac4 <HAL_RCC_ClockConfig+0x128>)
 8001a22:	f011 0f04 	tst.w	r1, #4
 8001a26:	bf1e      	ittt	ne
 8001a28:	685a      	ldrne	r2, [r3, #4]
 8001a2a:	f442 62e0 	orrne.w	r2, r2, #1792	; 0x700
 8001a2e:	605a      	strne	r2, [r3, #4]
 8001a30:	0708      	lsls	r0, r1, #28
 8001a32:	bf42      	ittt	mi
 8001a34:	685a      	ldrmi	r2, [r3, #4]
 8001a36:	f442 5260 	orrmi.w	r2, r2, #14336	; 0x3800
 8001a3a:	605a      	strmi	r2, [r3, #4]
 8001a3c:	685a      	ldr	r2, [r3, #4]
 8001a3e:	68a0      	ldr	r0, [r4, #8]
 8001a40:	f022 02f0 	bic.w	r2, r2, #240	; 0xf0
 8001a44:	4302      	orrs	r2, r0
 8001a46:	605a      	str	r2, [r3, #4]
 8001a48:	e7b9      	b.n	80019be <HAL_RCC_ClockConfig+0x22>
 8001a4a:	6862      	ldr	r2, [r4, #4]
 8001a4c:	4e1d      	ldr	r6, [pc, #116]	; (8001ac4 <HAL_RCC_ClockConfig+0x128>)
 8001a4e:	2a01      	cmp	r2, #1
 8001a50:	6833      	ldr	r3, [r6, #0]
 8001a52:	d11a      	bne.n	8001a8a <HAL_RCC_ClockConfig+0xee>
 8001a54:	f413 3f00 	tst.w	r3, #131072	; 0x20000
 8001a58:	d0a5      	beq.n	80019a6 <HAL_RCC_ClockConfig+0xa>
 8001a5a:	6873      	ldr	r3, [r6, #4]
 8001a5c:	f241 3888 	movw	r8, #5000	; 0x1388
 8001a60:	f023 0303 	bic.w	r3, r3, #3
 8001a64:	4313      	orrs	r3, r2
 8001a66:	6073      	str	r3, [r6, #4]
 8001a68:	f7fe fd14 	bl	8000494 <HAL_GetTick>
 8001a6c:	4607      	mov	r7, r0
 8001a6e:	6873      	ldr	r3, [r6, #4]
 8001a70:	6862      	ldr	r2, [r4, #4]
 8001a72:	f003 030c 	and.w	r3, r3, #12
 8001a76:	ebb3 0f82 	cmp.w	r3, r2, lsl #2
 8001a7a:	d0a2      	beq.n	80019c2 <HAL_RCC_ClockConfig+0x26>
 8001a7c:	f7fe fd0a 	bl	8000494 <HAL_GetTick>
 8001a80:	1bc0      	subs	r0, r0, r7
 8001a82:	4540      	cmp	r0, r8
 8001a84:	d9f3      	bls.n	8001a6e <HAL_RCC_ClockConfig+0xd2>
 8001a86:	2003      	movs	r0, #3
 8001a88:	e78e      	b.n	80019a8 <HAL_RCC_ClockConfig+0xc>
 8001a8a:	2a02      	cmp	r2, #2
 8001a8c:	d102      	bne.n	8001a94 <HAL_RCC_ClockConfig+0xf8>
 8001a8e:	f013 7f00 	tst.w	r3, #33554432	; 0x2000000
 8001a92:	e7e1      	b.n	8001a58 <HAL_RCC_ClockConfig+0xbc>
 8001a94:	f013 0f02 	tst.w	r3, #2
 8001a98:	e7de      	b.n	8001a58 <HAL_RCC_ClockConfig+0xbc>
 8001a9a:	6813      	ldr	r3, [r2, #0]
 8001a9c:	f023 0307 	bic.w	r3, r3, #7
 8001aa0:	432b      	orrs	r3, r5
 8001aa2:	6013      	str	r3, [r2, #0]
 8001aa4:	6813      	ldr	r3, [r2, #0]
 8001aa6:	f003 0307 	and.w	r3, r3, #7
 8001aaa:	42ab      	cmp	r3, r5
 8001aac:	f47f af7b 	bne.w	80019a6 <HAL_RCC_ClockConfig+0xa>
 8001ab0:	e78d      	b.n	80019ce <HAL_RCC_ClockConfig+0x32>
 8001ab2:	686b      	ldr	r3, [r5, #4]
 8001ab4:	68e1      	ldr	r1, [r4, #12]
 8001ab6:	f423 63e0 	bic.w	r3, r3, #1792	; 0x700
 8001aba:	430b      	orrs	r3, r1
 8001abc:	606b      	str	r3, [r5, #4]
 8001abe:	e78b      	b.n	80019d8 <HAL_RCC_ClockConfig+0x3c>
 8001ac0:	40022000 	.word	0x40022000
 8001ac4:	40021000 	.word	0x40021000
 8001ac8:	08001b64 	.word	0x08001b64
 8001acc:	20000000 	.word	0x20000000
 8001ad0:	20000008 	.word	0x20000008

08001ad4 <HAL_RCC_GetPCLK1Freq>:
 8001ad4:	4b04      	ldr	r3, [pc, #16]	; (8001ae8 <HAL_RCC_GetPCLK1Freq+0x14>)
 8001ad6:	4a05      	ldr	r2, [pc, #20]	; (8001aec <HAL_RCC_GetPCLK1Freq+0x18>)
 8001ad8:	685b      	ldr	r3, [r3, #4]
 8001ada:	f3c3 2302 	ubfx	r3, r3, #8, #3
 8001ade:	5cd3      	ldrb	r3, [r2, r3]
 8001ae0:	4a03      	ldr	r2, [pc, #12]	; (8001af0 <HAL_RCC_GetPCLK1Freq+0x1c>)
 8001ae2:	6810      	ldr	r0, [r2, #0]
 8001ae4:	40d8      	lsrs	r0, r3
 8001ae6:	4770      	bx	lr
 8001ae8:	40021000 	.word	0x40021000
 8001aec:	08001b74 	.word	0x08001b74
 8001af0:	20000000 	.word	0x20000000

08001af4 <__libc_init_array>:
 8001af4:	b570      	push	{r4, r5, r6, lr}
 8001af6:	2600      	movs	r6, #0
 8001af8:	4d0c      	ldr	r5, [pc, #48]	; (8001b2c <__libc_init_array+0x38>)
 8001afa:	4c0d      	ldr	r4, [pc, #52]	; (8001b30 <__libc_init_array+0x3c>)
 8001afc:	1b64      	subs	r4, r4, r5
 8001afe:	10a4      	asrs	r4, r4, #2
 8001b00:	42a6      	cmp	r6, r4
 8001b02:	d109      	bne.n	8001b18 <__libc_init_array+0x24>
 8001b04:	f000 f822 	bl	8001b4c <_init>
 8001b08:	2600      	movs	r6, #0
 8001b0a:	4d0a      	ldr	r5, [pc, #40]	; (8001b34 <__libc_init_array+0x40>)
 8001b0c:	4c0a      	ldr	r4, [pc, #40]	; (8001b38 <__libc_init_array+0x44>)
 8001b0e:	1b64      	subs	r4, r4, r5
 8001b10:	10a4      	asrs	r4, r4, #2
 8001b12:	42a6      	cmp	r6, r4
 8001b14:	d105      	bne.n	8001b22 <__libc_init_array+0x2e>
 8001b16:	bd70      	pop	{r4, r5, r6, pc}
 8001b18:	f855 3b04 	ldr.w	r3, [r5], #4
 8001b1c:	4798      	blx	r3
 8001b1e:	3601      	adds	r6, #1
 8001b20:	e7ee      	b.n	8001b00 <__libc_init_array+0xc>
 8001b22:	f855 3b04 	ldr.w	r3, [r5], #4
 8001b26:	4798      	blx	r3
 8001b28:	3601      	adds	r6, #1
 8001b2a:	e7f2      	b.n	8001b12 <__libc_init_array+0x1e>
 8001b2c:	08001b90 	.word	0x08001b90
 8001b30:	08001b90 	.word	0x08001b90
 8001b34:	08001b90 	.word	0x08001b90
 8001b38:	08001b94 	.word	0x08001b94

08001b3c <memset>:
 8001b3c:	4603      	mov	r3, r0
 8001b3e:	4402      	add	r2, r0
 8001b40:	4293      	cmp	r3, r2
 8001b42:	d100      	bne.n	8001b46 <memset+0xa>
 8001b44:	4770      	bx	lr
 8001b46:	f803 1b01 	strb.w	r1, [r3], #1
 8001b4a:	e7f9      	b.n	8001b40 <memset+0x4>

08001b4c <_init>:
 8001b4c:	b5f8      	push	{r3, r4, r5, r6, r7, lr}
 8001b4e:	bf00      	nop
 8001b50:	bcf8      	pop	{r3, r4, r5, r6, r7}
 8001b52:	bc08      	pop	{r3}
 8001b54:	469e      	mov	lr, r3
 8001b56:	4770      	bx	lr

08001b58 <_fini>:
 8001b58:	b5f8      	push	{r3, r4, r5, r6, r7, lr}
 8001b5a:	bf00      	nop
 8001b5c:	bcf8      	pop	{r3, r4, r5, r6, r7}
 8001b5e:	bc08      	pop	{r3}
 8001b60:	469e      	mov	lr, r3
 8001b62:	4770      	bx	lr
